

Microchip MPLAB XC8 Assembler V2.41 build 20230208172133 
                                                                                               Fri Dec 08 15:35:50 2023

Microchip MPLAB XC8 C Compiler v2.41 (Free license) build 20230208172133 Og1 
     1                           	processor	18F4620
     2                           	fnconf	rparam,??,?,0
     3                           	pagewidth 120
     4                           	opt	flic
     5                           	psect	idataCOMRAM,global,class=CODE,delta=1,noexec
     6                           	psect	idataBANK0,global,class=CODE,delta=1,noexec
     7                           	psect	idataBANK1,global,class=CODE,delta=1,noexec
     8                           	psect	smallconst,global,reloc=2,class=SMALLCONST,delta=1,noexec
     9                           	psect	cinit,global,reloc=2,class=CODE,delta=1
    10                           	psect	bssCOMRAM,global,class=COMRAM,space=1,delta=1,lowdata,noexec
    11                           	psect	dataCOMRAM,global,class=COMRAM,space=1,delta=1,lowdata,noexec
    12                           	psect	bssBANK0,global,class=BANK0,space=1,delta=1,lowdata,noexec
    13                           	psect	dataBANK0,global,class=BANK0,space=1,delta=1,lowdata,noexec
    14                           	psect	dataBANK1,global,class=BANK1,space=1,delta=1,lowdata,noexec
    15                           	psect	cstackBANK0,global,class=BANK0,space=1,delta=1,lowdata,noexec
    16                           	psect	cstackCOMRAM,global,class=COMRAM,space=1,delta=1,lowdata,noexec
    17                           	psect	text0,global,reloc=2,class=CODE,delta=1
    18                           	psect	text1,global,reloc=2,class=CODE,delta=1
    19                           	psect	text2,global,reloc=2,class=CODE,delta=1
    20                           	psect	text3,global,reloc=2,class=CODE,delta=1
    21                           	psect	text4,global,reloc=2,class=CODE,delta=1,group=1
    22                           	psect	text5,global,reloc=2,class=CODE,delta=1,group=1
    23                           	psect	text6,global,reloc=2,class=CODE,delta=1,group=1
    24                           	psect	text7,global,reloc=2,class=CODE,delta=1,group=1
    25                           	psect	text8,global,reloc=2,class=CODE,delta=1
    26                           	psect	text9,global,reloc=2,class=CODE,delta=1
    27                           	psect	text10,global,reloc=2,class=CODE,delta=1
    28                           	psect	text11,global,reloc=2,class=CODE,delta=1
    29                           	psect	text12,global,reloc=2,class=CODE,delta=1
    30                           	psect	text13,global,reloc=2,class=CODE,delta=1
    31                           	psect	text14,global,reloc=2,class=CODE,delta=1
    32                           	psect	text15,global,reloc=2,class=CODE,delta=1
    33                           	psect	text16,global,reloc=2,class=CODE,delta=1
    34                           	psect	text17,global,reloc=2,class=CODE,delta=1
    35                           	psect	text18,global,reloc=2,class=CODE,delta=1
    36                           	psect	intcode,global,reloc=2,class=CODE,delta=1
    37                           	psect	intcode_body,global,reloc=2,class=CODE,delta=1
    38                           	psect	text20,global,reloc=2,class=CODE,delta=1
    39                           	psect	text21,global,reloc=2,class=CODE,delta=1
    40                           	psect	text22,global,reloc=2,class=CODE,delta=1
    41                           	psect	text23,global,reloc=2,class=CODE,delta=1
    42                           	psect	text24,global,reloc=2,class=CODE,delta=1
    43                           	psect	text25,global,reloc=2,class=CODE,delta=1
    44                           	psect	text26,global,reloc=2,class=CODE,delta=1
    45                           	psect	text27,global,reloc=2,class=CODE,delta=1
    46                           	psect	text28,global,reloc=2,class=CODE,delta=1
    47                           	psect	text29,global,reloc=2,class=CODE,delta=1
    48                           	psect	text30,global,reloc=2,class=CODE,delta=1
    49                           	psect	text31,global,reloc=2,class=CODE,delta=1
    50                           	psect	text32,global,reloc=2,class=CODE,delta=1
    51                           	psect	text33,global,reloc=2,class=CODE,delta=1
    52                           	psect	text34,global,reloc=2,class=CODE,delta=1
    53                           	psect	text35,global,reloc=2,class=CODE,delta=1
    54                           	psect	intsave_regs,global,class=BIGRAM,space=1,delta=1,noexec
    55                           	psect	rparam,global,class=COMRAM,space=1,delta=1,noexec
    56                           	psect	temp,global,ovrld,common,class=COMRAM,space=1,delta=1
    57                           	psect	config,global,abs,ovrld,class=CONFIG,space=4,delta=1,noexec
    58   000000                     
    59                           ; Generated 23/03/2023 GMT
    60                           ; 
    61                           ; Copyright © 2023, Microchip Technology Inc. and its subsidiaries ("Microchip")
    62                           ; All rights reserved.
    63                           ; 
    64                           ; This software is developed by Microchip Technology Inc. and its subsidiaries ("Microch
      +                          ip").
    65                           ; 
    66                           ; Redistribution and use in source and binary forms, with or without modification, are
    67                           ; permitted provided that the following conditions are met:
    68                           ; 
    69                           ;     1. Redistributions of source code must retain the above copyright notice, this lis
      +                          t of
    70                           ;        conditions and the following disclaimer.
    71                           ; 
    72                           ;     2. Redistributions in binary form must reproduce the above copyright notice, this 
      +                          list
    73                           ;        of conditions and the following disclaimer in the documentation and/or other
    74                           ;        materials provided with the distribution. Publication is not required when
    75                           ;        this file is used in an embedded application.
    76                           ; 
    77                           ;     3. Microchip's name may not be used to endorse or promote products derived from th
      +                          is
    78                           ;        software without specific prior written permission.
    79                           ; 
    80                           ; THIS SOFTWARE IS PROVIDED BY MICROCHIP "AS IS" AND ANY EXPRESS OR IMPLIED WARRANTIES,
    81                           ; INCLUDING, BUT NOT LIMITED TO, THE IMPLIED WARRANTIES OF MERCHANTABILITY AND FITNESS F
      +                          OR
    82                           ; PURPOSE ARE DISCLAIMED.  IN NO EVENT SHALL MICROCHIP BE LIABLE FOR ANY DIRECT, INDIREC
      +                          T,
    83                           ; INCIDENTAL, SPECIAL, EXEMPLARY, OR CONSEQUENTIAL DAMAGES (INCLUDING BUT NOT LIMITED TO
    84                           ; PROCUREMENT OF SUBSTITUTE GOODS OR SERVICES; LOSS OF USE, DATA OR PROFITS; OR BUSINESS
    85                           ; INTERRUPTION) HOWSOEVER CAUSED AND ON ANY THEORY OF LIABILITY, WHETHER IN CONTRACT, ST
      +                          RICT
    86                           ; LIABILITY, OR TORT (INCLUDING NEGLIGENCE OR OTHERWISE) ARISING IN ANY WAY OUT OF THE U
      +                          SE OF
    87                           ; THIS SOFTWARE, EVEN IF ADVISED OF THE POSSIBILITY OF SUCH DAMAGE.
    88                           ; 
    89                           ; 
    90                           ; Code-generator required, PIC18F4620 Definitions
    91                           ; 
    92                           ; SFR Addresses
    93   000000                     
    94                           	psect	idataCOMRAM
    95   002CCE                     __pidataCOMRAM:
    96                           	callstack 0
    97                           
    98                           ;initializer for _RB7_Flag
    99   002CCE  01                 	db	1
   100                           
   101                           ;initializer for _RB6_Flag
   102   002CCF  01                 	db	1
   103                           
   104                           ;initializer for _RB5_Flag
   105   002CD0  01                 	db	1
   106                           
   107                           ;initializer for _RB4_Flag
   108   002CD1  01                 	db	1
   109                           
   110                           ;initializer for _led2
   111   002CD2  13                 	db	19
   112                           
   113                           ;initializer for _led1
   114   002CD3  03                 	db	3
   115                           
   116                           	psect	idataBANK0
   117   002BC8                     __pidataBANK0:
   118                           	callstack 0
   119                           
   120                           ;initializer for _port_registers
   121   002BC8  80                 	db	128
   122   002BC9  0F                 	db	15
   123   002BCA  81                 	db	129
   124   002BCB  0F                 	db	15
   125   002BCC  82                 	db	130
   126   002BCD  0F                 	db	15
   127   002BCE  83                 	db	131
   128   002BCF  0F                 	db	15
   129   002BD0  84                 	db	132
   130   002BD1  0F                 	db	15
   131                           
   132                           ;initializer for _lat_registers
   133   002BD2  89                 	db	137
   134   002BD3  0F                 	db	15
   135   002BD4  8A                 	db	138
   136   002BD5  0F                 	db	15
   137   002BD6  8B                 	db	139
   138   002BD7  0F                 	db	15
   139   002BD8  8C                 	db	140
   140   002BD9  0F                 	db	15
   141   002BDA  8D                 	db	141
   142   002BDB  0F                 	db	15
   143                           
   144                           ;initializer for _tris_registers
   145   002BDC  92                 	db	146
   146   002BDD  0F                 	db	15
   147   002BDE  93                 	db	147
   148   002BDF  0F                 	db	15
   149   002BE0  94                 	db	148
   150   002BE1  0F                 	db	15
   151   002BE2  95                 	db	149
   152   002BE3  0F                 	db	15
   153   002BE4  96                 	db	150
   154   002BE5  0F                 	db	15
   155                           
   156                           ;initializer for _lcd_2
   157   002BE6  32                 	db	50
   158   002BE7  3A                 	db	58
   159   002BE8  03                 	db	3
   160   002BE9  0B                 	db	11
   161   002BEA  13                 	db	19
   162   002BEB  1B                 	db	27
   163   002BEC  23                 	db	35
   164   002BED  2B                 	db	43
   165   002BEE  33                 	db	51
   166   002BEF  3B                 	db	59
   167                           
   168                           ;initializer for _lcd_1
   169   002BF0  02                 	db	2
   170   002BF1  0A                 	db	10
   171   002BF2  12                 	db	18
   172   002BF3  1A                 	db	26
   173   002BF4  22                 	db	34
   174   002BF5  2A                 	db	42
   175                           
   176                           	psect	idataBANK1
   177   002B98                     __pidataBANK1:
   178                           	callstack 0
   179                           
   180                           ;initializer for _keypad_btn_values
   181   002B98  37                 	db	55
   182   002B99  00                 	db	0
   183   002B9A  00                 	db	0
   184   002B9B  38                 	db	56
   185   002B9C  00                 	db	0
   186   002B9D  00                 	db	0
   187   002B9E  39                 	db	57
   188   002B9F  00                 	db	0
   189   002BA0  00                 	db	0
   190   002BA1  2F                 	db	47
   191   002BA2  00                 	db	0
   192   002BA3  00                 	db	0
   193   002BA4  34                 	db	52
   194   002BA5  00                 	db	0
   195   002BA6  00                 	db	0
   196   002BA7  35                 	db	53
   197   002BA8  00                 	db	0
   198   002BA9  00                 	db	0
   199   002BAA  36                 	db	54
   200   002BAB  00                 	db	0
   201   002BAC  00                 	db	0
   202   002BAD  2A                 	db	42
   203   002BAE  00                 	db	0
   204   002BAF  00                 	db	0
   205   002BB0  31                 	db	49
   206   002BB1  00                 	db	0
   207   002BB2  00                 	db	0
   208   002BB3  32                 	db	50
   209   002BB4  00                 	db	0
   210   002BB5  00                 	db	0
   211   002BB6  33                 	db	51
   212   002BB7  00                 	db	0
   213   002BB8  00                 	db	0
   214   002BB9  2B                 	db	43
   215   002BBA  00                 	db	0
   216   002BBB  00                 	db	0
   217   002BBC  23                 	db	35
   218   002BBD  00                 	db	0
   219   002BBE  00                 	db	0
   220   002BBF  30                 	db	48
   221   002BC0  00                 	db	0
   222   002BC1  00                 	db	0
   223   002BC2  3D                 	db	61
   224   002BC3  00                 	db	0
   225   002BC4  00                 	db	0
   226   002BC5  2D                 	db	45
   227   002BC6  00                 	db	0
   228   002BC7  00                 	db	0
   229   000000                     _SPBRGH	set	4016
   230   000000                     _SPBRG	set	4015
   231   000000                     _TXREG	set	4013
   232   000000                     _TXSTAbits	set	4012
   233   000000                     _RCREG	set	4014
   234   000000                     _RCSTAbits	set	4011
   235   000000                     _TMR3L	set	4018
   236   000000                     _TMR3H	set	4019
   237   000000                     _TMR2	set	4044
   238   000000                     _TMR1L	set	4046
   239   000000                     _TMR1H	set	4047
   240   000000                     _T1CONbits	set	4045
   241   000000                     _TMR0L	set	4054
   242   000000                     _TMR0H	set	4055
   243   000000                     _T0CONbits	set	4053
   244   000000                     _INTCON2bits	set	4081
   245   000000                     _INTCON3bits	set	4080
   246   000000                     _EECON2	set	4007
   247   000000                     _CCPR2H	set	4028
   248   000000                     _CCPR2L	set	4027
   249   000000                     _CCPR1H	set	4031
   250   000000                     _CCPR1L	set	4030
   251   000000                     _ADCON1bits	set	4033
   252   000000                     _ADRESL	set	4035
   253   000000                     _ADRESH	set	4036
   254   000000                     _INTCONbits	set	4082
   255   000000                     _TRISD	set	3989
   256   000000                     _TRISC	set	3988
   257   000000                     _TRISB	set	3987
   258   000000                     _TRISE	set	3990
   259   000000                     _TRISCbits	set	3988
   260   000000                     _PORTBbits	set	3969
   261   000000                     _PIE1bits	set	3997
   262   000000                     _ADCON2bits	set	4032
   263   000000                     _ADCON0bits	set	4034
   264   000000                     _PORTE	set	3972
   265   000000                     _PORTD	set	3971
   266   000000                     _PORTC	set	3970
   267   000000                     _PORTB	set	3969
   268   000000                     _PORTA	set	3968
   269   000000                     _LATA	set	3977
   270   000000                     _TRISA	set	3986
   271   000000                     _PIE2bits	set	4000
   272   000000                     _CCP1CONbits	set	4029
   273   000000                     _PIR1bits	set	3998
   274   000000                     _T2CONbits	set	4042
   275   000000                     _PR2	set	4043
   276   000000                     _EECON1bits	set	4006
   277   000000                     _EEDATA	set	4008
   278   000000                     _EEADR	set	4009
   279   000000                     _EEADRH	set	4010
   280   000000                     _T3CONbits	set	4017
   281   000000                     _CCP2CONbits	set	4026
   282   000000                     _PIR2bits	set	4001
   283   000000                     _LATE	set	3981
   284   000000                     _LATD	set	3980
   285   000000                     _LATC	set	3979
   286   000000                     _LATB	set	3978
   287   000000                     _BAUDCONbits	set	4024
   288                           
   289                           	psect	smallconst
   290   001000                     __psmallconst:
   291                           	callstack 0
   292   001000  00                 	db	0
   293   001001                     STR_7:
   294   001001  4C                 	db	76	;'L'
   295   001002  45                 	db	69	;'E'
   296   001003  44                 	db	68	;'D'
   297   001004  31                 	db	49	;'1'
   298   001005  20                 	db	32
   299   001006  4F                 	db	79	;'O'
   300   001007  6E                 	db	110	;'n'
   301   001008  0D                 	db	13
   302   001009  00                 	db	0
   303   00100A                     STR_8:
   304   00100A  4C                 	db	76	;'L'
   305   00100B  45                 	db	69	;'E'
   306   00100C  44                 	db	68	;'D'
   307   00100D  32                 	db	50	;'2'
   308   00100E  20                 	db	32
   309   00100F  4F                 	db	79	;'O'
   310   001010  6E                 	db	110	;'n'
   311   001011  0D                 	db	13
   312   001012  00                 	db	0
   313   001013                     STR_1:
   314   001013  2F                 	db	47
   315   001014  30                 	db	48	;'0'
   316   001015  00                 	db	0
   317   001016                     STR_2:
   318   001016  25                 	db	37
   319   001017  69                 	db	105	;'i'
   320   001018  00                 	db	0
   321   001019  00                 	db	0	; dummy byte at the end
   322   000000                     
   323                           ; #config settings
   324                           
   325                           	psect	cinit
   326   0028C8                     __pcinit:
   327                           	callstack 0
   328   0028C8                     start_initialization:
   329                           	callstack 0
   330   0028C8                     __initialization:
   331                           	callstack 0
   332                           
   333                           ; Initialize objects allocated to BANK1 (48 bytes)
   334                           ; load TBLPTR registers with __pidataBANK1
   335   0028C8  0E98               	movlw	low __pidataBANK1
   336   0028CA  6EF6               	movwf	tblptrl,c
   337   0028CC  0E2B               	movlw	high __pidataBANK1
   338   0028CE  6EF7               	movwf	tblptrh,c
   339   0028D0  0E00               	movlw	low (__pidataBANK1 shr (0+16))
   340   0028D2  6EF8               	movwf	tblptru,c
   341   0028D4  EE01  F000         	lfsr	0,__pdataBANK1
   342   0028D8  EE10 F030          	lfsr	1,48
   343   0028DC                     copy_data0:
   344   0028DC  0009               	tblrd		*+
   345   0028DE  CFF5 FFEE          	movff	tablat,postinc0
   346   0028E2  50E5               	movf	postdec1,w,c
   347   0028E4  50E1               	movf	fsr1l,w,c
   348   0028E6  E1FA               	bnz	copy_data0
   349                           
   350                           ; Initialize objects allocated to BANK0 (46 bytes)
   351                           ; load TBLPTR registers with __pidataBANK0
   352   0028E8  0EC8               	movlw	low __pidataBANK0
   353   0028EA  6EF6               	movwf	tblptrl,c
   354   0028EC  0E2B               	movlw	high __pidataBANK0
   355   0028EE  6EF7               	movwf	tblptrh,c
   356   0028F0  0E00               	movlw	low (__pidataBANK0 shr (0+16))
   357   0028F2  6EF8               	movwf	tblptru,c
   358   0028F4  EE00  F080         	lfsr	0,__pdataBANK0
   359   0028F8  EE10 F02E          	lfsr	1,46
   360   0028FC                     copy_data1:
   361   0028FC  0009               	tblrd		*+
   362   0028FE  CFF5 FFEE          	movff	tablat,postinc0
   363   002902  50E5               	movf	postdec1,w,c
   364   002904  50E1               	movf	fsr1l,w,c
   365   002906  E1FA               	bnz	copy_data1
   366                           
   367                           ; Initialize objects allocated to COMRAM (6 bytes)
   368                           ; load TBLPTR registers with __pidataCOMRAM
   369   002908  0ECE               	movlw	low __pidataCOMRAM
   370   00290A  6EF6               	movwf	tblptrl,c
   371   00290C  0E2C               	movlw	high __pidataCOMRAM
   372   00290E  6EF7               	movwf	tblptrh,c
   373   002910  0E00               	movlw	low (__pidataCOMRAM shr (0+16))
   374   002912  6EF8               	movwf	tblptru,c
   375   002914  EE00  F077         	lfsr	0,__pdataCOMRAM
   376   002918  EE10 F006          	lfsr	1,6
   377   00291C                     copy_data2:
   378   00291C  0009               	tblrd		*+
   379   00291E  CFF5 FFEE          	movff	tablat,postinc0
   380   002922  50E5               	movf	postdec1,w,c
   381   002924  50E1               	movf	fsr1l,w,c
   382   002926  E1FA               	bnz	copy_data2
   383                           
   384                           ; Clear objects allocated to BANK0 (44 bytes)
   385   002928  EE00  F0AE         	lfsr	0,__pbssBANK0
   386   00292C  0E2C               	movlw	44
   387   00292E                     clear_0:
   388   00292E  6AEE               	clrf	postinc0,c
   389   002930  06E8               	decf	wreg,f,c
   390   002932  E1FD               	bnz	clear_0
   391                           
   392                           ; Clear objects allocated to COMRAM (47 bytes)
   393   002934  EE00  F048         	lfsr	0,__pbssCOMRAM
   394   002938  0E2F               	movlw	47
   395   00293A                     clear_1:
   396   00293A  6AEE               	clrf	postinc0,c
   397   00293C  06E8               	decf	wreg,f,c
   398   00293E  E1FD               	bnz	clear_1
   399   002940                     end_of_initialization:
   400                           	callstack 0
   401   002940                     __end_of__initialization:
   402                           	callstack 0
   403   002940  907D               	bcf	int$flags,0,c	;clear compiler interrupt flag (level 1)
   404   002942  927D               	bcf	int$flags,1,c	;clear compiler interrupt flag (level 2)
   405   002944  0100               	movlb	0
   406   002946  EF59  F013         	goto	_main	;jump to C main() function
   407                           
   408                           	psect	bssCOMRAM
   409   000048                     __pbssCOMRAM:
   410                           	callstack 0
   411   000048                     _TMR1_Interrupt_Hundeler:
   412                           	callstack 0
   413   000048                     	ds	2
   414   00004A                     _timer0_preload:
   415                           	callstack 0
   416   00004A                     	ds	2
   417   00004C                     _TMR0_Interrupt_Hundeler:
   418                           	callstack 0
   419   00004C                     	ds	2
   420   00004E                     _RB7_Interrupt_Handular_LOW:
   421                           	callstack 0
   422   00004E                     	ds	2
   423   000050                     _RB7_Interrupt_Handular_HIGH:
   424                           	callstack 0
   425   000050                     	ds	2
   426   000052                     _RB6_Interrupt_Handular_LOW:
   427                           	callstack 0
   428   000052                     	ds	2
   429   000054                     _RB6_Interrupt_Handular_HIGH:
   430                           	callstack 0
   431   000054                     	ds	2
   432   000056                     _RB5_Interrupt_Handular_LOW:
   433                           	callstack 0
   434   000056                     	ds	2
   435   000058                     _RB5_Interrupt_Handular_HIGH:
   436                           	callstack 0
   437   000058                     	ds	2
   438   00005A                     _RB4_Interrupt_Handular_LOW:
   439                           	callstack 0
   440   00005A                     	ds	2
   441   00005C                     _RB4_Interrupt_Handular_HIGH:
   442                           	callstack 0
   443   00005C                     	ds	2
   444   00005E                     _INT2_Interrupt_Handular:
   445                           	callstack 0
   446   00005E                     	ds	2
   447   000060                     _INT1_Interrupt_Handular:
   448                           	callstack 0
   449   000060                     	ds	2
   450   000062                     _INT0_Interrupt_Handular:
   451                           	callstack 0
   452   000062                     	ds	2
   453   000064                     CCP1_Compare_Mode_Set_Value@F3148:
   454                           	callstack 0
   455   000064                     	ds	2
   456   000066                     CCP_Captured_Mode_Read_Value@F3127:
   457                           	callstack 0
   458   000066                     	ds	2
   459   000068                     _CCP2_Interrupt_Hundeler:
   460                           	callstack 0
   461   000068                     	ds	2
   462   00006A                     _CCP1_Interrupt_Hundeler:
   463                           	callstack 0
   464   00006A                     	ds	2
   465   00006C                     _ADC_Interrupt_Handular:
   466                           	callstack 0
   467   00006C                     	ds	2
   468   00006E                     _timer2_preloaded:
   469                           	callstack 0
   470   00006E                     	ds	1
   471   00006F                     Relay_Turn_OFF@F3052:
   472                           	callstack 0
   473   00006F                     	ds	1
   474   000070                     Relay_Turn_ON@F3047:
   475                           	callstack 0
   476   000070                     	ds	1
   477   000071                     Relay_Initialize@F3042:
   478                           	callstack 0
   479   000071                     	ds	1
   480   000072                     led_toggle@F3063:
   481                           	callstack 0
   482   000072                     	ds	1
   483   000073                     led_turn_off@F3058:
   484                           	callstack 0
   485   000073                     	ds	1
   486   000074                     led_turn_on@F3053:
   487                           	callstack 0
   488   000074                     	ds	1
   489   000075                     led_initialize@F3048:
   490                           	callstack 0
   491   000075                     	ds	1
   492   000076                     _rec_usart:
   493                           	callstack 0
   494   000076                     	ds	1
   495                           
   496                           	psect	dataCOMRAM
   497   000077                     __pdataCOMRAM:
   498                           	callstack 0
   499   000077                     _RB7_Flag:
   500                           	callstack 0
   501   000077                     	ds	1
   502   000078                     _RB6_Flag:
   503                           	callstack 0
   504   000078                     	ds	1
   505   000079                     _RB5_Flag:
   506                           	callstack 0
   507   000079                     	ds	1
   508   00007A                     _RB4_Flag:
   509                           	callstack 0
   510   00007A                     	ds	1
   511   00007B                     _led2:
   512                           	callstack 0
   513   00007B                     	ds	1
   514   00007C                     _led1:
   515                           	callstack 0
   516   00007C                     	ds	1
   517                           
   518                           	psect	bssBANK0
   519   0000AE                     __pbssBANK0:
   520                           	callstack 0
   521   0000AE                     	ds	6
   522   0000B4                     _timer3_preload:
   523                           	callstack 0
   524   0000B4                     	ds	4
   525   0000B8                     _timer1_preload:
   526                           	callstack 0
   527   0000B8                     	ds	4
   528   0000BC                     _EUSART_Overrun_error_Interrupt_Hundeler:
   529                           	callstack 0
   530   0000BC                     	ds	2
   531   0000BE                     _EUSART_Framig_error_Interrupt_Hundeler:
   532                           	callstack 0
   533   0000BE                     	ds	2
   534   0000C0                     _EUSART_RX_Interrupt_Hundeler:
   535                           	callstack 0
   536   0000C0                     	ds	2
   537   0000C2                     _EUSART_TX_Interrupt_Hundeler:
   538                           	callstack 0
   539   0000C2                     	ds	2
   540   0000C4                     _TMR3_Interrupt_Hundeler:
   541                           	callstack 0
   542   0000C4                     	ds	2
   543   0000C6                     _TMR2_Interrupt_Hundeler:
   544                           	callstack 0
   545   0000C6                     	ds	2
   546   0000C8                     _usart_obj:
   547                           	callstack 0
   548   0000C8                     	ds	18
   549                           
   550                           	psect	dataBANK0
   551   000080                     __pdataBANK0:
   552                           	callstack 0
   553   000080                     _port_registers:
   554                           	callstack 0
   555   000080                     	ds	10
   556   00008A                     _lat_registers:
   557                           	callstack 0
   558   00008A                     	ds	10
   559   000094                     _tris_registers:
   560                           	callstack 0
   561   000094                     	ds	10
   562   00009E                     _lcd_2:
   563                           	callstack 0
   564   00009E                     	ds	10
   565   0000A8                     _lcd_1:
   566                           	callstack 0
   567   0000A8                     	ds	6
   568                           
   569                           	psect	dataBANK1
   570   000100                     __pdataBANK1:
   571                           	callstack 0
   572   000100                     _keypad_btn_values:
   573                           	callstack 0
   574   000100                     	ds	48
   575                           
   576                           	psect	cstackBANK0
   577   0000DA                     __pcstackBANK0:
   578                           	callstack 0
   579   0000DA                     ??_main:
   580                           
   581                           ; 1 bytes @ 0x0
   582   0000DA                     	ds	2
   583                           
   584                           	psect	cstackCOMRAM
   585   000001                     __pcstackCOMRAM:
   586                           	callstack 0
   587   000001                     RB4_ISR@source:
   588                           	callstack 0
   589   000001                     RB5_ISR@source:
   590                           	callstack 0
   591   000001                     RB6_ISR@source:
   592                           	callstack 0
   593   000001                     RB7_ISR@source:
   594                           	callstack 0
   595                           
   596                           ; 1 bytes @ 0x0
   597   000001                     	ds	1
   598   000002                     ?___fltol:
   599                           	callstack 0
   600   000002                     ?___xxtofl:
   601                           	callstack 0
   602   000002                     USART_ASYNC_WriteByte_Blocking@data:
   603                           	callstack 0
   604   000002                     gpio_pin_direction_intialize@pin_config:
   605                           	callstack 0
   606   000002                     gpio_pin_write_logic@pin_config:
   607                           	callstack 0
   608   000002                     gpio_pin_toggle_logic@pin_config:
   609                           	callstack 0
   610   000002                     USART_ASYNC_ReadByte_Non_Blocking@data:
   611                           	callstack 0
   612   000002                     EUSART_ASYNC_TX_Init@eusar:
   613                           	callstack 0
   614   000002                     EUSART_ASYNC_RX_Init@eusar:
   615                           	callstack 0
   616   000002                     ___fltol@f1:
   617                           	callstack 0
   618   000002                     ___xxtofl@val:
   619                           	callstack 0
   620                           
   621                           ; 4 bytes @ 0x1
   622   000002                     	ds	1
   623   000003                     USART_ASYNC_WriteString_Blocking@data:
   624                           	callstack 0
   625                           
   626                           ; 2 bytes @ 0x2
   627   000003                     	ds	1
   628   000004                     ??_gpio_pin_direction_intialize:
   629   000004                     ??_gpio_pin_toggle_logic:
   630   000004                     gpio_pin_write_logic@logic:
   631                           	callstack 0
   632   000004                     USART_ASYNC_ReadByte_Non_Blocking@ret:
   633                           	callstack 0
   634                           
   635                           ; 1 bytes @ 0x3
   636   000004                     	ds	1
   637   000005                     ??_gpio_pin_write_logic:
   638   000005                     USART_ASYNC_WriteString_Blocking@str_len:
   639                           	callstack 0
   640                           
   641                           ; 2 bytes @ 0x4
   642   000005                     	ds	1
   643   000006                     ??___fltol:
   644   000006                     ??___xxtofl:
   645                           
   646                           ; 1 bytes @ 0x5
   647   000006                     	ds	1
   648   000007                     ??_USART_ASYNC_WriteString_Blocking:
   649                           
   650                           ; 1 bytes @ 0x6
   651   000007                     	ds	2
   652   000009                     USART_ASYNC_WriteString_Blocking@ret:
   653                           	callstack 0
   654   000009                     led_toggle@led:
   655                           	callstack 0
   656                           
   657                           ; 2 bytes @ 0x8
   658   000009                     	ds	1
   659   00000A                     gpio_pin_direction_intialize@ret:
   660                           	callstack 0
   661   00000A                     ___fltol@sign1:
   662                           	callstack 0
   663   00000A                     ___xxtofl@sign:
   664                           	callstack 0
   665   00000A                     USART_ASYNC_WriteString_Blocking@L_str_length:
   666                           	callstack 0
   667                           
   668                           ; 2 bytes @ 0x9
   669   00000A                     	ds	1
   670   00000B                     ??_led_toggle:
   671   00000B                     gpio_pin_write_logic@ret:
   672                           	callstack 0
   673   00000B                     ___fltol@exp1:
   674                           	callstack 0
   675   00000B                     ___xxtofl@exp:
   676                           	callstack 0
   677                           
   678                           ; 1 bytes @ 0xA
   679   00000B                     	ds	1
   680   00000C                     led_toggle@pin_obj:
   681                           	callstack 0
   682   00000C                     gpio_pin_intialize@pin_config:
   683                           	callstack 0
   684   00000C                     ___xxtofl@arg:
   685                           	callstack 0
   686                           
   687                           ; 4 bytes @ 0xB
   688   00000C                     	ds	2
   689   00000E                     ??_gpio_pin_intialize:
   690                           
   691                           ; 1 bytes @ 0xD
   692   00000E                     	ds	1
   693   00000F                     gpio_pin_intialize@ret:
   694                           	callstack 0
   695                           
   696                           ; 1 bytes @ 0xE
   697   00000F                     	ds	1
   698   000010                     ?___fldiv:
   699                           	callstack 0
   700   000010                     led_initialize@led:
   701                           	callstack 0
   702   000010                     ___fldiv@b:
   703                           	callstack 0
   704                           
   705                           ; 4 bytes @ 0xF
   706   000010                     	ds	2
   707   000012                     ??_led_initialize:
   708                           
   709                           ; 1 bytes @ 0x11
   710   000012                     	ds	1
   711   000013                     led_initialize@ret:
   712                           	callstack 0
   713                           
   714                           ; 1 bytes @ 0x12
   715   000013                     	ds	1
   716   000014                     led_initialize@pin_obj:
   717                           	callstack 0
   718   000014                     ___fldiv@a:
   719                           	callstack 0
   720                           
   721                           ; 4 bytes @ 0x13
   722   000014                     	ds	4
   723   000018                     ??___fldiv:
   724                           
   725                           ; 1 bytes @ 0x17
   726   000018                     	ds	4
   727   00001C                     ___fldiv@rem:
   728                           	callstack 0
   729                           
   730                           ; 4 bytes @ 0x1B
   731   00001C                     	ds	4
   732   000020                     ___fldiv@sign:
   733                           	callstack 0
   734                           
   735                           ; 1 bytes @ 0x1F
   736   000020                     	ds	1
   737   000021                     ___fldiv@new_exp:
   738                           	callstack 0
   739                           
   740                           ; 2 bytes @ 0x20
   741   000021                     	ds	2
   742   000023                     ___fldiv@grs:
   743                           	callstack 0
   744                           
   745                           ; 4 bytes @ 0x22
   746   000023                     	ds	4
   747   000027                     ___fldiv@bexp:
   748                           	callstack 0
   749                           
   750                           ; 1 bytes @ 0x26
   751   000027                     	ds	1
   752   000028                     ___fldiv@aexp:
   753                           	callstack 0
   754                           
   755                           ; 1 bytes @ 0x27
   756   000028                     	ds	1
   757   000029                     ?___fladd:
   758                           	callstack 0
   759   000029                     ___fladd@b:
   760                           	callstack 0
   761                           
   762                           ; 4 bytes @ 0x28
   763   000029                     	ds	4
   764   00002D                     ___fladd@a:
   765                           	callstack 0
   766                           
   767                           ; 4 bytes @ 0x2C
   768   00002D                     	ds	4
   769   000031                     ??___fladd:
   770                           
   771                           ; 1 bytes @ 0x30
   772   000031                     	ds	4
   773   000035                     ___fladd@signs:
   774                           	callstack 0
   775                           
   776                           ; 1 bytes @ 0x34
   777   000035                     	ds	1
   778   000036                     ___fladd@aexp:
   779                           	callstack 0
   780                           
   781                           ; 1 bytes @ 0x35
   782   000036                     	ds	1
   783   000037                     ___fladd@bexp:
   784                           	callstack 0
   785                           
   786                           ; 1 bytes @ 0x36
   787   000037                     	ds	1
   788   000038                     ___fladd@grs:
   789                           	callstack 0
   790                           
   791                           ; 1 bytes @ 0x37
   792   000038                     	ds	1
   793   000039                     EUSART_BaudRate_Calculations@eusar:
   794                           	callstack 0
   795                           
   796                           ; 2 bytes @ 0x38
   797   000039                     	ds	2
   798   00003B                     ??_EUSART_BaudRate_Calculations:
   799                           
   800                           ; 1 bytes @ 0x3A
   801   00003B                     	ds	2
   802   00003D                     EUSART_BaudRate_Calculations@BaudRate_Temp:
   803                           	callstack 0
   804                           
   805                           ; 4 bytes @ 0x3C
   806   00003D                     	ds	4
   807   000041                     _EUSART_BaudRate_Calculations$4767:
   808                           	callstack 0
   809                           
   810                           ; 4 bytes @ 0x40
   811   000041                     	ds	4
   812   000045                     USART_ASYNC_Init@eusar:
   813                           	callstack 0
   814                           
   815                           ; 2 bytes @ 0x44
   816   000045                     	ds	2
   817   000047                     USART_ASYNC_Init@ret:
   818                           	callstack 0
   819                           
   820                           ; 1 bytes @ 0x46
   821   000047                     	ds	1
   822   000048                     
   823                           ; 1 bytes @ 0x47
   824 ;;
   825 ;;Main: autosize = 0, tempsize = 2, incstack = 0, save=0
   826 ;;
   827 ;; *************** function _main *****************
   828 ;; Defined at:
   829 ;;		line 44 in file "application.c"
   830 ;; Parameters:    Size  Location     Type
   831 ;;		None
   832 ;; Auto vars:     Size  Location     Type
   833 ;;  ret             1    0        unsigned char 
   834 ;; Return value:  Size  Location     Type
   835 ;;                  2  1367[None  ] int 
   836 ;; Registers used:
   837 ;;		wreg, fsr2l, fsr2h, status,2, status,0, tblptrl, tblptrh, tblptru, prodl, prodh, cstack
   838 ;; Tracked objects:
   839 ;;		On entry : 0/0
   840 ;;		On exit  : 0/0
   841 ;;		Unchanged: 0/0
   842 ;; Data sizes:     COMRAM   BANK0   BANK1   BANK2   BANK3   BANK4   BANK5   BANK6   BANK7   BANK8   BANK9  BANK10  BANK1
      +1  BANK12  BANK13  BANK14  BANK15
   843 ;;      Params:         0       0       0       0       0       0       0       0       0       0       0       0       
      +0       0       0       0       0
   844 ;;      Locals:         0       0       0       0       0       0       0       0       0       0       0       0       
      +0       0       0       0       0
   845 ;;      Temps:          0       2       0       0       0       0       0       0       0       0       0       0       
      +0       0       0       0       0
   846 ;;      Totals:         0       2       0       0       0       0       0       0       0       0       0       0       
      +0       0       0       0       0
   847 ;;Total ram usage:        2 bytes
   848 ;; Hardware stack levels required when called: 6
   849 ;; This function calls:
   850 ;;		_USART_ASYNC_ReadByte_Non_Blocking
   851 ;;		_USART_ASYNC_WriteString_Blocking
   852 ;;		_led_initialize
   853 ;;		_led_toggle
   854 ;;		_usart_int_init
   855 ;; This function is called by:
   856 ;;		Startup code after reset
   857 ;; This function uses a non-reentrant model
   858 ;;
   859                           
   860                           	psect	text0
   861   0026B2                     __ptext0:
   862                           	callstack 0
   863   0026B2                     _main:
   864                           	callstack 25
   865   0026B2                     
   866                           ;application.c: 46: usart_int_init();
   867   0026B2  EC7D  F015         	call	_usart_int_init	;wreg free
   868   0026B6  0E7C               	movlw	low _led1
   869   0026B8  6E10               	movwf	led_initialize@led^0,c
   870   0026BA  0E00               	movlw	high _led1
   871   0026BC  6E11               	movwf	(led_initialize@led+1)^0,c
   872   0026BE  ECA5  F014         	call	_led_initialize	;wreg free
   873   0026C2  0E7B               	movlw	low _led2
   874   0026C4  6E10               	movwf	led_initialize@led^0,c
   875   0026C6  0E00               	movlw	high _led2
   876   0026C8  6E11               	movwf	(led_initialize@led+1)^0,c
   877   0026CA  ECA5  F014         	call	_led_initialize	;wreg free
   878   0026CE                     l7164:
   879   0026CE  0E76               	movlw	low _rec_usart
   880   0026D0  6E02               	movwf	USART_ASYNC_ReadByte_Non_Blocking@data^0,c
   881   0026D2  0E00               	movlw	high _rec_usart
   882   0026D4  6E03               	movwf	(USART_ASYNC_ReadByte_Non_Blocking@data+1)^0,c
   883   0026D6  ECFB  F015         	call	_USART_ASYNC_ReadByte_Non_Blocking	;wreg free
   884   0026DA                     
   885                           ;application.c: 57:    if(rec_usart == 'a'){
   886   0026DA  0E61               	movlw	97
   887   0026DC  1876               	xorwf	_rec_usart^0,w,c
   888   0026DE  A4D8               	btfss	status,2,c
   889   0026E0  EF74  F013         	goto	u6781
   890   0026E4  EF76  F013         	goto	u6780
   891   0026E8                     u6781:
   892   0026E8  EF95  F013         	goto	l7174
   893   0026EC                     u6780:
   894   0026EC                     
   895                           ;application.c: 58:      led_toggle(&led1);
   896   0026EC  0E7C               	movlw	low _led1
   897   0026EE  6E09               	movwf	led_toggle@led^0,c
   898   0026F0  0E00               	movlw	high _led1
   899   0026F2  6E0A               	movwf	(led_toggle@led+1)^0,c
   900   0026F4  ECE3  F014         	call	_led_toggle	;wreg free
   901   0026F8                     
   902                           ;application.c: 59:     _delay((unsigned long)((200)*(4000000UL/4000.0)));
   903   0026F8  0E02               	movlw	2
   904   0026FA  0100               	movlb	0	; () banked
   905   0026FC  6FDB               	movwf	(??_main+1)& (0+255),b
   906   0026FE  0E04               	movlw	4
   907   002700  6FDA               	movwf	??_main& (0+255),b
   908   002702  0EBA               	movlw	186
   909   002704                     u6807:
   910   002704  2EE8               	decfsz	wreg,f,c
   911   002706  D7FE               	bra	u6807
   912   002708  2FDA               	decfsz	??_main& (0+255),f,b
   913   00270A  D7FC               	bra	u6807
   914   00270C  2FDB               	decfsz	(??_main+1)& (0+255),f,b
   915   00270E  D7FA               	bra	u6807
   916   002710  F000               	nop	
   917   002712  0E01               	movlw	low STR_7
   918   002714  6E03               	movwf	USART_ASYNC_WriteString_Blocking@data^0,c
   919   002716  0E10               	movlw	high STR_7
   920   002718  6E04               	movwf	(USART_ASYNC_WriteString_Blocking@data+1)^0,c
   921   00271A  0E00               	movlw	0
   922   00271C  6E06               	movwf	(USART_ASYNC_WriteString_Blocking@str_len+1)^0,c
   923   00271E  0E08               	movlw	8
   924   002720  6E05               	movwf	USART_ASYNC_WriteString_Blocking@str_len^0,c
   925   002722  EC52  F015         	call	_USART_ASYNC_WriteString_Blocking	;wreg free
   926                           
   927                           ;application.c: 61:    }
   928   002726  EF67  F013         	goto	l7164
   929   00272A                     l7174:
   930   00272A  0E62               	movlw	98
   931   00272C  1876               	xorwf	_rec_usart^0,w,c
   932   00272E  A4D8               	btfss	status,2,c
   933   002730  EF9C  F013         	goto	u6791
   934   002734  EF9E  F013         	goto	u6790
   935   002738                     u6791:
   936   002738  EFBD  F013         	goto	l1370
   937   00273C                     u6790:
   938   00273C                     
   939                           ;application.c: 63:    led_toggle(&led2);
   940   00273C  0E7B               	movlw	low _led2
   941   00273E  6E09               	movwf	led_toggle@led^0,c
   942   002740  0E00               	movlw	high _led2
   943   002742  6E0A               	movwf	(led_toggle@led+1)^0,c
   944   002744  ECE3  F014         	call	_led_toggle	;wreg free
   945   002748                     
   946                           ;application.c: 64:    _delay((unsigned long)((200)*(4000000UL/4000.0)));
   947   002748  0E02               	movlw	2
   948   00274A  0100               	movlb	0	; () banked
   949   00274C  6FDB               	movwf	(??_main+1)& (0+255),b
   950   00274E  0E04               	movlw	4
   951   002750  6FDA               	movwf	??_main& (0+255),b
   952   002752  0EBA               	movlw	186
   953   002754                     u6817:
   954   002754  2EE8               	decfsz	wreg,f,c
   955   002756  D7FE               	bra	u6817
   956   002758  2FDA               	decfsz	??_main& (0+255),f,b
   957   00275A  D7FC               	bra	u6817
   958   00275C  2FDB               	decfsz	(??_main+1)& (0+255),f,b
   959   00275E  D7FA               	bra	u6817
   960   002760  F000               	nop	
   961   002762  0E0A               	movlw	low STR_8
   962   002764  6E03               	movwf	USART_ASYNC_WriteString_Blocking@data^0,c
   963   002766  0E10               	movlw	high STR_8
   964   002768  6E04               	movwf	(USART_ASYNC_WriteString_Blocking@data+1)^0,c
   965   00276A  0E00               	movlw	0
   966   00276C  6E06               	movwf	(USART_ASYNC_WriteString_Blocking@str_len+1)^0,c
   967   00276E  0E08               	movlw	8
   968   002770  6E05               	movwf	USART_ASYNC_WriteString_Blocking@str_len^0,c
   969   002772  EC52  F015         	call	_USART_ASYNC_WriteString_Blocking	;wreg free
   970                           
   971                           ;application.c: 66:    }
   972   002776  EF67  F013         	goto	l7164
   973   00277A                     l1370:
   974   00277A  EF67  F013         	goto	l7164
   975   00277E  EF07  F000         	goto	start
   976   002782                     __end_of_main:
   977                           	callstack 0
   978                           
   979 ;; *************** function _usart_int_init *****************
   980 ;; Defined at:
   981 ;;		line 14 in file "application.c"
   982 ;; Parameters:    Size  Location     Type
   983 ;;		None
   984 ;; Auto vars:     Size  Location     Type
   985 ;;  ret             1    0        unsigned char 
   986 ;; Return value:  Size  Location     Type
   987 ;;                  1    wreg      void 
   988 ;; Registers used:
   989 ;;		wreg, fsr2l, fsr2h, status,2, status,0, cstack
   990 ;; Tracked objects:
   991 ;;		On entry : 0/0
   992 ;;		On exit  : 0/0
   993 ;;		Unchanged: 0/0
   994 ;; Data sizes:     COMRAM   BANK0   BANK1   BANK2   BANK3   BANK4   BANK5   BANK6   BANK7   BANK8   BANK9  BANK10  BANK1
      +1  BANK12  BANK13  BANK14  BANK15
   995 ;;      Params:         0       0       0       0       0       0       0       0       0       0       0       0       
      +0       0       0       0       0
   996 ;;      Locals:         0       0       0       0       0       0       0       0       0       0       0       0       
      +0       0       0       0       0
   997 ;;      Temps:          0       0       0       0       0       0       0       0       0       0       0       0       
      +0       0       0       0       0
   998 ;;      Totals:         0       0       0       0       0       0       0       0       0       0       0       0       
      +0       0       0       0       0
   999 ;;Total ram usage:        0 bytes
  1000 ;; Hardware stack levels used: 1
  1001 ;; Hardware stack levels required when called: 5
  1002 ;; This function calls:
  1003 ;;		_USART_ASYNC_Init
  1004 ;; This function is called by:
  1005 ;;		_main
  1006 ;; This function uses a non-reentrant model
  1007 ;;
  1008                           
  1009                           	psect	text1
  1010   002AFA                     __ptext1:
  1011                           	callstack 0
  1012   002AFA                     _usart_int_init:
  1013                           	callstack 25
  1014   002AFA                     
  1015                           ;application.c: 16:     usart_obj.baudrate = 9600;
  1016   002AFA  0E80               	movlw	128
  1017   002AFC  0100               	movlb	0	; () banked
  1018   002AFE  6FC8               	movwf	_usart_obj& (0+255),b
  1019   002B00  0E25               	movlw	37
  1020   002B02  6FC9               	movwf	(_usart_obj+1)& (0+255),b
  1021   002B04  0E00               	movlw	0
  1022   002B06  6FCA               	movwf	(_usart_obj+2)& (0+255),b
  1023   002B08  0E00               	movlw	0
  1024   002B0A  6FCB               	movwf	(_usart_obj+3)& (0+255),b
  1025                           
  1026                           ;application.c: 17:     usart_obj.baudrate_gen_cfg = BAUDRATE_ASYNC_8BIT_LOW_SPEED;
  1027   002B0C  0E00               	movlw	0
  1028   002B0E  6FCC               	movwf	(_usart_obj+4)& (0+255),b
  1029   002B10                     
  1030                           ; BSR set to: 0
  1031                           ;application.c: 18:     usart_obj.tx_cfg.usart_tx_enable = 1;
  1032   002B10  8BCD               	bsf	(_usart_obj+5)& (0+255),5,b
  1033   002B12                     
  1034                           ; BSR set to: 0
  1035                           ;application.c: 19:     usart_obj.tx_cfg.usart_tx_interrupt_enable = 0 ;
  1036   002B12  9DCD               	bcf	(_usart_obj+5)& (0+255),6,b
  1037   002B14                     
  1038                           ; BSR set to: 0
  1039                           ;application.c: 20:     usart_obj.tx_cfg.usart_tx_9bit_enable = 0 ;
  1040   002B14  9FCD               	bcf	(_usart_obj+5)& (0+255),7,b
  1041   002B16                     
  1042                           ; BSR set to: 0
  1043                           ;application.c: 21:     usart_obj.rx_cfg.usart_rx_enable = 1;
  1044   002B16  8BCF               	bsf	(_usart_obj+7)& (0+255),5,b
  1045   002B18                     
  1046                           ; BSR set to: 0
  1047                           ;application.c: 22:     usart_obj.rx_cfg.usart_rx_interrupt_enable = 0 ;
  1048   002B18  9DCF               	bcf	(_usart_obj+7)& (0+255),6,b
  1049   002B1A                     
  1050                           ; BSR set to: 0
  1051                           ;application.c: 23:     usart_obj.rx_cfg.usart_rx_9bit_enable = 0 ;
  1052   002B1A  9FCF               	bcf	(_usart_obj+7)& (0+255),7,b
  1053   002B1C                     
  1054                           ; BSR set to: 0
  1055                           ;application.c: 25:     usart_obj.EUSART_Framming_Error_HUNDELER = ((void*)0);
  1056   002B1C  0E00               	movlw	0
  1057   002B1E  6FD6               	movwf	(_usart_obj+14)& (0+255),b
  1058   002B20  0E00               	movlw	0
  1059   002B22  6FD7               	movwf	(_usart_obj+15)& (0+255),b
  1060   002B24                     
  1061                           ; BSR set to: 0
  1062                           ;application.c: 26:     usart_obj.EUSART_Overrun_Error_HUNDELER = ((void*)0);
  1063   002B24  0E00               	movlw	0
  1064   002B26  6FD8               	movwf	(_usart_obj+16)& (0+255),b
  1065   002B28  0E00               	movlw	0
  1066   002B2A  6FD9               	movwf	(_usart_obj+17)& (0+255),b
  1067   002B2C                     
  1068                           ; BSR set to: 0
  1069                           ;application.c: 27:     usart_obj.EUSART_RX_DEFUALTINTERRUPT_HUNDELER = ((void*)0);
  1070   002B2C  0E00               	movlw	0
  1071   002B2E  6FD4               	movwf	(_usart_obj+12)& (0+255),b
  1072   002B30  0E00               	movlw	0
  1073   002B32  6FD5               	movwf	(_usart_obj+13)& (0+255),b
  1074   002B34                     
  1075                           ; BSR set to: 0
  1076                           ;application.c: 28:     usart_obj.EUSART_TX_DEFUALTINTERRUPT_HUNDELER = ((void*)0);
  1077   002B34  0E00               	movlw	0
  1078   002B36  6FD2               	movwf	(_usart_obj+10)& (0+255),b
  1079   002B38  0E00               	movlw	0
  1080   002B3A  6FD3               	movwf	(_usart_obj+11)& (0+255),b
  1081   002B3C                     
  1082                           ; BSR set to: 0
  1083   002B3C  0EC8               	movlw	low _usart_obj
  1084   002B3E  6E45               	movwf	USART_ASYNC_Init@eusar^0,c
  1085   002B40  0E00               	movlw	high _usart_obj
  1086   002B42  6E46               	movwf	(USART_ASYNC_Init@eusar+1)^0,c
  1087   002B44  ECA5  F015         	call	_USART_ASYNC_Init	;wreg free
  1088   002B48  0012               	return		;funcret
  1089   002B4A                     __end_of_usart_int_init:
  1090                           	callstack 0
  1091                           
  1092 ;; *************** function _USART_ASYNC_Init *****************
  1093 ;; Defined at:
  1094 ;;		line 23 in file "MCAL_Layer/UART/hal_uart.c"
  1095 ;; Parameters:    Size  Location     Type
  1096 ;;  eusar           2   68[COMRAM] PTR const struct .
  1097 ;;		 -> usart_obj(18), 
  1098 ;; Auto vars:     Size  Location     Type
  1099 ;;  ret             1   70[COMRAM] unsigned char 
  1100 ;; Return value:  Size  Location     Type
  1101 ;;                  1    wreg      unsigned char 
  1102 ;; Registers used:
  1103 ;;		wreg, fsr2l, fsr2h, status,2, status,0, cstack
  1104 ;; Tracked objects:
  1105 ;;		On entry : 0/0
  1106 ;;		On exit  : 0/0
  1107 ;;		Unchanged: 0/0
  1108 ;; Data sizes:     COMRAM   BANK0   BANK1   BANK2   BANK3   BANK4   BANK5   BANK6   BANK7   BANK8   BANK9  BANK10  BANK1
      +1  BANK12  BANK13  BANK14  BANK15
  1109 ;;      Params:         2       0       0       0       0       0       0       0       0       0       0       0       
      +0       0       0       0       0
  1110 ;;      Locals:         1       0       0       0       0       0       0       0       0       0       0       0       
      +0       0       0       0       0
  1111 ;;      Temps:          0       0       0       0       0       0       0       0       0       0       0       0       
      +0       0       0       0       0
  1112 ;;      Totals:         3       0       0       0       0       0       0       0       0       0       0       0       
      +0       0       0       0       0
  1113 ;;Total ram usage:        3 bytes
  1114 ;; Hardware stack levels used: 1
  1115 ;; Hardware stack levels required when called: 4
  1116 ;; This function calls:
  1117 ;;		_EUSART_ASYNC_RX_Init
  1118 ;;		_EUSART_ASYNC_TX_Init
  1119 ;;		_EUSART_BaudRate_Calculations
  1120 ;; This function is called by:
  1121 ;;		_usart_int_init
  1122 ;; This function uses a non-reentrant model
  1123 ;;
  1124                           
  1125                           	psect	text2
  1126   002B4A                     __ptext2:
  1127                           	callstack 0
  1128   002B4A                     _USART_ASYNC_Init:
  1129                           	callstack 25
  1130   002B4A                     
  1131                           ;MCAL_Layer/UART/hal_uart.c: 26: if(eusar == ((void*)0)){
  1132   002B4A  5045               	movf	USART_ASYNC_Init@eusar^0,w,c
  1133   002B4C  1046               	iorwf	(USART_ASYNC_Init@eusar+1)^0,w,c
  1134   002B4E  A4D8               	btfss	status,2,c
  1135   002B50  EFAC  F015         	goto	u4961
  1136   002B54  EFAE  F015         	goto	u4960
  1137   002B58                     u4961:
  1138   002B58  EFB2  F015         	goto	l1417
  1139   002B5C                     u4960:
  1140   002B5C                     
  1141                           ;MCAL_Layer/UART/hal_uart.c: 27: ret = (Std_ReturnType)0x00;
  1142   002B5C  0E00               	movlw	0
  1143   002B5E  6E47               	movwf	USART_ASYNC_Init@ret^0,c
  1144                           
  1145                           ;MCAL_Layer/UART/hal_uart.c: 28: }
  1146   002B60  EFCA  F015         	goto	l5764
  1147   002B64                     l1417:
  1148                           
  1149                           ;MCAL_Layer/UART/hal_uart.c: 30:     RCSTAbits.SPEN = 0;
  1150   002B64  9EAB               	bcf	171,7,c	;volatile
  1151                           
  1152                           ;MCAL_Layer/UART/hal_uart.c: 31:     TRISCbits.RC7 = 1;
  1153   002B66  8E94               	bsf	148,7,c	;volatile
  1154                           
  1155                           ;MCAL_Layer/UART/hal_uart.c: 32:     TRISCbits.RC6 = 1;
  1156   002B68  8C94               	bsf	148,6,c	;volatile
  1157   002B6A                     
  1158                           ;MCAL_Layer/UART/hal_uart.c: 33:     EUSART_BaudRate_Calculations(eusar);
  1159   002B6A  C045  F039         	movff	USART_ASYNC_Init@eusar,EUSART_BaudRate_Calculations@eusar
  1160   002B6E  C046  F03A         	movff	USART_ASYNC_Init@eusar+1,EUSART_BaudRate_Calculations@eusar+1
  1161   002B72  EC6D  F00A         	call	_EUSART_BaudRate_Calculations	;wreg free
  1162                           
  1163                           ;MCAL_Layer/UART/hal_uart.c: 34:     EUSART_ASYNC_TX_Init(eusar);
  1164   002B76  C045  F002         	movff	USART_ASYNC_Init@eusar,EUSART_ASYNC_TX_Init@eusar
  1165   002B7A  C046  F003         	movff	USART_ASYNC_Init@eusar+1,EUSART_ASYNC_TX_Init@eusar+1
  1166   002B7E  ECC1  F013         	call	_EUSART_ASYNC_TX_Init	;wreg free
  1167                           
  1168                           ;MCAL_Layer/UART/hal_uart.c: 35:     EUSART_ASYNC_RX_Init(eusar);
  1169   002B82  C045  F002         	movff	USART_ASYNC_Init@eusar,EUSART_ASYNC_RX_Init@eusar
  1170   002B86  C046  F003         	movff	USART_ASYNC_Init@eusar+1,EUSART_ASYNC_RX_Init@eusar+1
  1171   002B8A  ECEB  F012         	call	_EUSART_ASYNC_RX_Init	;wreg free
  1172   002B8E                     
  1173                           ;MCAL_Layer/UART/hal_uart.c: 36:     RCSTAbits.SPEN = 1;
  1174   002B8E  8EAB               	bsf	171,7,c	;volatile
  1175   002B90                     
  1176                           ;MCAL_Layer/UART/hal_uart.c: 37:     ret = (Std_ReturnType)0x01;
  1177   002B90  0E01               	movlw	1
  1178   002B92  6E47               	movwf	USART_ASYNC_Init@ret^0,c
  1179   002B94                     l5764:
  1180                           
  1181                           ;MCAL_Layer/UART/hal_uart.c: 39: return ret;
  1182   002B94  5047               	movf	USART_ASYNC_Init@ret^0,w,c
  1183   002B96  0012               	return		;funcret
  1184   002B98                     __end_of_USART_ASYNC_Init:
  1185                           	callstack 0
  1186                           
  1187 ;; *************** function _EUSART_BaudRate_Calculations *****************
  1188 ;; Defined at:
  1189 ;;		line 126 in file "MCAL_Layer/UART/hal_uart.c"
  1190 ;; Parameters:    Size  Location     Type
  1191 ;;  eusar           2   56[COMRAM] PTR const struct .
  1192 ;;		 -> usart_obj(18), 
  1193 ;; Auto vars:     Size  Location     Type
  1194 ;;  BaudRate_Tem    4   60[COMRAM] float 
  1195 ;; Return value:  Size  Location     Type
  1196 ;;                  1    wreg      void 
  1197 ;; Registers used:
  1198 ;;		wreg, fsr2l, fsr2h, status,2, status,0, cstack
  1199 ;; Tracked objects:
  1200 ;;		On entry : 0/0
  1201 ;;		On exit  : 0/0
  1202 ;;		Unchanged: 0/0
  1203 ;; Data sizes:     COMRAM   BANK0   BANK1   BANK2   BANK3   BANK4   BANK5   BANK6   BANK7   BANK8   BANK9  BANK10  BANK1
      +1  BANK12  BANK13  BANK14  BANK15
  1204 ;;      Params:         2       0       0       0       0       0       0       0       0       0       0       0       
      +0       0       0       0       0
  1205 ;;      Locals:         8       0       0       0       0       0       0       0       0       0       0       0       
      +0       0       0       0       0
  1206 ;;      Temps:          2       0       0       0       0       0       0       0       0       0       0       0       
      +0       0       0       0       0
  1207 ;;      Totals:        12       0       0       0       0       0       0       0       0       0       0       0       
      +0       0       0       0       0
  1208 ;;Total ram usage:       12 bytes
  1209 ;; Hardware stack levels used: 1
  1210 ;; Hardware stack levels required when called: 3
  1211 ;; This function calls:
  1212 ;;		___fladd
  1213 ;;		___fldiv
  1214 ;;		___fltol
  1215 ;;		___xxtofl
  1216 ;; This function is called by:
  1217 ;;		_USART_ASYNC_Init
  1218 ;; This function uses a non-reentrant model
  1219 ;;
  1220                           
  1221                           	psect	text3
  1222   0014DA                     __ptext3:
  1223                           	callstack 0
  1224   0014DA                     _EUSART_BaudRate_Calculations:
  1225                           	callstack 25
  1226   0014DA                     
  1227                           ;MCAL_Layer/UART/hal_uart.c: 127:     float BaudRate_Temp = 0;
  1228   0014DA  0E00               	movlw	0
  1229   0014DC  6E3D               	movwf	EUSART_BaudRate_Calculations@BaudRate_Temp^0,c
  1230   0014DE  0E00               	movlw	0
  1231   0014E0  6E3E               	movwf	(EUSART_BaudRate_Calculations@BaudRate_Temp+1)^0,c
  1232   0014E2  0E00               	movlw	0
  1233   0014E4  6E3F               	movwf	(EUSART_BaudRate_Calculations@BaudRate_Temp+2)^0,c
  1234   0014E6  0E00               	movlw	0
  1235   0014E8  6E40               	movwf	(EUSART_BaudRate_Calculations@BaudRate_Temp+3)^0,c
  1236                           
  1237                           ;MCAL_Layer/UART/hal_uart.c: 128:     switch(eusar->baudrate_gen_cfg){
  1238   0014EA  EF82  F00C         	goto	l5656
  1239   0014EE                     l1467:
  1240                           
  1241                           ;MCAL_Layer/UART/hal_uart.c: 130:             TXSTAbits.SYNC = 0;
  1242   0014EE  98AC               	bcf	172,4,c	;volatile
  1243                           
  1244                           ;MCAL_Layer/UART/hal_uart.c: 131:             TXSTAbits.BRGH = 0;
  1245   0014F0  94AC               	bcf	172,2,c	;volatile
  1246                           
  1247                           ;MCAL_Layer/UART/hal_uart.c: 132:             BAUDCONbits.BRG16 = 0;
  1248   0014F2  96B8               	bcf	184,3,c	;volatile
  1249   0014F4                     
  1250                           ;MCAL_Layer/UART/hal_uart.c: 133:             BaudRate_Temp = ((4000000UL /(float)eusar-
      +                          >baudrate)/ 64) - 1;
  1251   0014F4  C039  FFD9         	movff	EUSART_BaudRate_Calculations@eusar,fsr2l
  1252   0014F8  C03A  FFDA         	movff	EUSART_BaudRate_Calculations@eusar+1,fsr2h
  1253   0014FC  CFDE F002          	movff	postinc2,___xxtofl@val
  1254   001500  CFDE F003          	movff	postinc2,___xxtofl@val+1
  1255   001504  CFDE F004          	movff	postinc2,___xxtofl@val+2
  1256   001508  CFDE F005          	movff	postinc2,___xxtofl@val+3
  1257   00150C  0E00               	movlw	0
  1258   00150E  EC4E  F010         	call	___xxtofl
  1259   001512  C002  F014         	movff	?___xxtofl,___fldiv@a
  1260   001516  C003  F015         	movff	?___xxtofl+1,___fldiv@a+1
  1261   00151A  C004  F016         	movff	?___xxtofl+2,___fldiv@a+2
  1262   00151E  C005  F017         	movff	?___xxtofl+3,___fldiv@a+3
  1263   001522  0E00               	movlw	0
  1264   001524  6E10               	movwf	___fldiv@b^0,c
  1265   001526  0E24               	movlw	36
  1266   001528  6E11               	movwf	(___fldiv@b+1)^0,c
  1267   00152A  0E74               	movlw	116
  1268   00152C  6E12               	movwf	(___fldiv@b+2)^0,c
  1269   00152E  0E4A               	movlw	74
  1270   001530  6E13               	movwf	(___fldiv@b+3)^0,c
  1271   001532  EC81  F00E         	call	___fldiv	;wreg free
  1272   001536  C010  F041         	movff	?___fldiv,_EUSART_BaudRate_Calculations$4767
  1273   00153A  C011  F042         	movff	?___fldiv+1,_EUSART_BaudRate_Calculations$4767+1
  1274   00153E  C012  F043         	movff	?___fldiv+2,_EUSART_BaudRate_Calculations$4767+2
  1275   001542  C013  F044         	movff	?___fldiv+3,_EUSART_BaudRate_Calculations$4767+3
  1276   001546  0E00               	movlw	0
  1277   001548  6E14               	movwf	___fldiv@a^0,c
  1278   00154A  0E00               	movlw	0
  1279   00154C  6E15               	movwf	(___fldiv@a+1)^0,c
  1280   00154E  0E80               	movlw	128
  1281   001550  6E16               	movwf	(___fldiv@a+2)^0,c
  1282   001552  0E42               	movlw	66
  1283   001554  6E17               	movwf	(___fldiv@a+3)^0,c
  1284   001556  C041  F010         	movff	_EUSART_BaudRate_Calculations$4767,___fldiv@b
  1285   00155A  C042  F011         	movff	_EUSART_BaudRate_Calculations$4767+1,___fldiv@b+1
  1286   00155E  C043  F012         	movff	_EUSART_BaudRate_Calculations$4767+2,___fldiv@b+2
  1287   001562  C044  F013         	movff	_EUSART_BaudRate_Calculations$4767+3,___fldiv@b+3
  1288   001566  EC81  F00E         	call	___fldiv	;wreg free
  1289   00156A  C010  F029         	movff	?___fldiv,___fladd@b
  1290   00156E  C011  F02A         	movff	?___fldiv+1,___fladd@b+1
  1291   001572  C012  F02B         	movff	?___fldiv+2,___fladd@b+2
  1292   001576  C013  F02C         	movff	?___fldiv+3,___fladd@b+3
  1293   00157A  0E00               	movlw	0
  1294   00157C  6E2D               	movwf	___fladd@a^0,c
  1295   00157E  0E00               	movlw	0
  1296   001580  6E2E               	movwf	(___fladd@a+1)^0,c
  1297   001582  0E80               	movlw	128
  1298   001584  6E2F               	movwf	(___fladd@a+2)^0,c
  1299   001586  0EBF               	movlw	191
  1300   001588  6E30               	movwf	(___fladd@a+3)^0,c
  1301   00158A  EC0D  F008         	call	___fladd	;wreg free
  1302                           
  1303                           ;MCAL_Layer/UART/hal_uart.c: 134:             break;
  1304   00158E  EFAD  F00C         	goto	l1475
  1305   001592                     l1469:
  1306                           
  1307                           ;MCAL_Layer/UART/hal_uart.c: 136:             TXSTAbits.SYNC = 0;
  1308   001592  98AC               	bcf	172,4,c	;volatile
  1309                           
  1310                           ;MCAL_Layer/UART/hal_uart.c: 137:             TXSTAbits.BRGH = 1;
  1311   001594  84AC               	bsf	172,2,c	;volatile
  1312                           
  1313                           ;MCAL_Layer/UART/hal_uart.c: 138:             BAUDCONbits.BRG16 = 0;
  1314   001596  96B8               	bcf	184,3,c	;volatile
  1315   001598                     
  1316                           ;MCAL_Layer/UART/hal_uart.c: 139:             BaudRate_Temp = ((4000000UL /(float)eusar-
      +                          >baudrate)/ 16) - 1;
  1317   001598  C039  FFD9         	movff	EUSART_BaudRate_Calculations@eusar,fsr2l
  1318   00159C  C03A  FFDA         	movff	EUSART_BaudRate_Calculations@eusar+1,fsr2h
  1319   0015A0  CFDE F002          	movff	postinc2,___xxtofl@val
  1320   0015A4  CFDE F003          	movff	postinc2,___xxtofl@val+1
  1321   0015A8  CFDE F004          	movff	postinc2,___xxtofl@val+2
  1322   0015AC  CFDE F005          	movff	postinc2,___xxtofl@val+3
  1323   0015B0  0E00               	movlw	0
  1324   0015B2  EC4E  F010         	call	___xxtofl
  1325   0015B6  C002  F014         	movff	?___xxtofl,___fldiv@a
  1326   0015BA  C003  F015         	movff	?___xxtofl+1,___fldiv@a+1
  1327   0015BE  C004  F016         	movff	?___xxtofl+2,___fldiv@a+2
  1328   0015C2  C005  F017         	movff	?___xxtofl+3,___fldiv@a+3
  1329   0015C6  0E00               	movlw	0
  1330   0015C8  6E10               	movwf	___fldiv@b^0,c
  1331   0015CA  0E24               	movlw	36
  1332   0015CC  6E11               	movwf	(___fldiv@b+1)^0,c
  1333   0015CE  0E74               	movlw	116
  1334   0015D0  6E12               	movwf	(___fldiv@b+2)^0,c
  1335   0015D2  0E4A               	movlw	74
  1336   0015D4  6E13               	movwf	(___fldiv@b+3)^0,c
  1337   0015D6  EC81  F00E         	call	___fldiv	;wreg free
  1338   0015DA  C010  F041         	movff	?___fldiv,_EUSART_BaudRate_Calculations$4767
  1339   0015DE  C011  F042         	movff	?___fldiv+1,_EUSART_BaudRate_Calculations$4767+1
  1340   0015E2  C012  F043         	movff	?___fldiv+2,_EUSART_BaudRate_Calculations$4767+2
  1341   0015E6  C013  F044         	movff	?___fldiv+3,_EUSART_BaudRate_Calculations$4767+3
  1342   0015EA  0E00               	movlw	0
  1343   0015EC  6E14               	movwf	___fldiv@a^0,c
  1344   0015EE  0E00               	movlw	0
  1345   0015F0  6E15               	movwf	(___fldiv@a+1)^0,c
  1346   0015F2  0E80               	movlw	128
  1347   0015F4  6E16               	movwf	(___fldiv@a+2)^0,c
  1348   0015F6  0E41               	movlw	65
  1349   0015F8  6E17               	movwf	(___fldiv@a+3)^0,c
  1350   0015FA  C041  F010         	movff	_EUSART_BaudRate_Calculations$4767,___fldiv@b
  1351   0015FE  C042  F011         	movff	_EUSART_BaudRate_Calculations$4767+1,___fldiv@b+1
  1352   001602  C043  F012         	movff	_EUSART_BaudRate_Calculations$4767+2,___fldiv@b+2
  1353   001606  C044  F013         	movff	_EUSART_BaudRate_Calculations$4767+3,___fldiv@b+3
  1354   00160A  EC81  F00E         	call	___fldiv	;wreg free
  1355   00160E  C010  F029         	movff	?___fldiv,___fladd@b
  1356   001612  C011  F02A         	movff	?___fldiv+1,___fladd@b+1
  1357   001616  C012  F02B         	movff	?___fldiv+2,___fladd@b+2
  1358   00161A  C013  F02C         	movff	?___fldiv+3,___fladd@b+3
  1359   00161E  0E00               	movlw	0
  1360   001620  6E2D               	movwf	___fladd@a^0,c
  1361   001622  0E00               	movlw	0
  1362   001624  6E2E               	movwf	(___fladd@a+1)^0,c
  1363   001626  0E80               	movlw	128
  1364   001628  6E2F               	movwf	(___fladd@a+2)^0,c
  1365   00162A  0EBF               	movlw	191
  1366   00162C  6E30               	movwf	(___fladd@a+3)^0,c
  1367   00162E  EC0D  F008         	call	___fladd	;wreg free
  1368                           
  1369                           ;MCAL_Layer/UART/hal_uart.c: 140:             break;
  1370   001632  EFAD  F00C         	goto	l1475
  1371   001636                     l1470:
  1372                           
  1373                           ;MCAL_Layer/UART/hal_uart.c: 142:             TXSTAbits.SYNC = 0;
  1374   001636  98AC               	bcf	172,4,c	;volatile
  1375                           
  1376                           ;MCAL_Layer/UART/hal_uart.c: 143:             TXSTAbits.BRGH = 0;
  1377   001638  94AC               	bcf	172,2,c	;volatile
  1378                           
  1379                           ;MCAL_Layer/UART/hal_uart.c: 144:             BAUDCONbits.BRG16 = 1;
  1380   00163A  86B8               	bsf	184,3,c	;volatile
  1381   00163C                     
  1382                           ;MCAL_Layer/UART/hal_uart.c: 145:             BaudRate_Temp = ((4000000UL /(float)eusar-
      +                          >baudrate)/ 16) - 1;
  1383   00163C  C039  FFD9         	movff	EUSART_BaudRate_Calculations@eusar,fsr2l
  1384   001640  C03A  FFDA         	movff	EUSART_BaudRate_Calculations@eusar+1,fsr2h
  1385   001644  CFDE F002          	movff	postinc2,___xxtofl@val
  1386   001648  CFDE F003          	movff	postinc2,___xxtofl@val+1
  1387   00164C  CFDE F004          	movff	postinc2,___xxtofl@val+2
  1388   001650  CFDE F005          	movff	postinc2,___xxtofl@val+3
  1389   001654  0E00               	movlw	0
  1390   001656  EC4E  F010         	call	___xxtofl
  1391   00165A  C002  F014         	movff	?___xxtofl,___fldiv@a
  1392   00165E  C003  F015         	movff	?___xxtofl+1,___fldiv@a+1
  1393   001662  C004  F016         	movff	?___xxtofl+2,___fldiv@a+2
  1394   001666  C005  F017         	movff	?___xxtofl+3,___fldiv@a+3
  1395   00166A  0E00               	movlw	0
  1396   00166C  6E10               	movwf	___fldiv@b^0,c
  1397   00166E  0E24               	movlw	36
  1398   001670  6E11               	movwf	(___fldiv@b+1)^0,c
  1399   001672  0E74               	movlw	116
  1400   001674  6E12               	movwf	(___fldiv@b+2)^0,c
  1401   001676  0E4A               	movlw	74
  1402   001678  6E13               	movwf	(___fldiv@b+3)^0,c
  1403   00167A  EC81  F00E         	call	___fldiv	;wreg free
  1404   00167E  C010  F041         	movff	?___fldiv,_EUSART_BaudRate_Calculations$4767
  1405   001682  C011  F042         	movff	?___fldiv+1,_EUSART_BaudRate_Calculations$4767+1
  1406   001686  C012  F043         	movff	?___fldiv+2,_EUSART_BaudRate_Calculations$4767+2
  1407   00168A  C013  F044         	movff	?___fldiv+3,_EUSART_BaudRate_Calculations$4767+3
  1408   00168E  0E00               	movlw	0
  1409   001690  6E14               	movwf	___fldiv@a^0,c
  1410   001692  0E00               	movlw	0
  1411   001694  6E15               	movwf	(___fldiv@a+1)^0,c
  1412   001696  0E80               	movlw	128
  1413   001698  6E16               	movwf	(___fldiv@a+2)^0,c
  1414   00169A  0E41               	movlw	65
  1415   00169C  6E17               	movwf	(___fldiv@a+3)^0,c
  1416   00169E  C041  F010         	movff	_EUSART_BaudRate_Calculations$4767,___fldiv@b
  1417   0016A2  C042  F011         	movff	_EUSART_BaudRate_Calculations$4767+1,___fldiv@b+1
  1418   0016A6  C043  F012         	movff	_EUSART_BaudRate_Calculations$4767+2,___fldiv@b+2
  1419   0016AA  C044  F013         	movff	_EUSART_BaudRate_Calculations$4767+3,___fldiv@b+3
  1420   0016AE  EC81  F00E         	call	___fldiv	;wreg free
  1421   0016B2  C010  F029         	movff	?___fldiv,___fladd@b
  1422   0016B6  C011  F02A         	movff	?___fldiv+1,___fladd@b+1
  1423   0016BA  C012  F02B         	movff	?___fldiv+2,___fladd@b+2
  1424   0016BE  C013  F02C         	movff	?___fldiv+3,___fladd@b+3
  1425   0016C2  0E00               	movlw	0
  1426   0016C4  6E2D               	movwf	___fladd@a^0,c
  1427   0016C6  0E00               	movlw	0
  1428   0016C8  6E2E               	movwf	(___fladd@a+1)^0,c
  1429   0016CA  0E80               	movlw	128
  1430   0016CC  6E2F               	movwf	(___fladd@a+2)^0,c
  1431   0016CE  0EBF               	movlw	191
  1432   0016D0  6E30               	movwf	(___fladd@a+3)^0,c
  1433   0016D2  EC0D  F008         	call	___fladd	;wreg free
  1434                           
  1435                           ;MCAL_Layer/UART/hal_uart.c: 146:             break;
  1436   0016D6  EFAD  F00C         	goto	l1475
  1437   0016DA                     l1471:
  1438                           
  1439                           ;MCAL_Layer/UART/hal_uart.c: 148:             TXSTAbits.SYNC = 0;
  1440   0016DA  98AC               	bcf	172,4,c	;volatile
  1441                           
  1442                           ;MCAL_Layer/UART/hal_uart.c: 149:             TXSTAbits.BRGH = 1;
  1443   0016DC  84AC               	bsf	172,2,c	;volatile
  1444                           
  1445                           ;MCAL_Layer/UART/hal_uart.c: 150:             BAUDCONbits.BRG16 = 1;
  1446   0016DE  86B8               	bsf	184,3,c	;volatile
  1447   0016E0                     
  1448                           ;MCAL_Layer/UART/hal_uart.c: 151:              BaudRate_Temp = ((4000000UL /(float)eusar
      +                          ->baudrate)/ 4) - 1;
  1449   0016E0  C039  FFD9         	movff	EUSART_BaudRate_Calculations@eusar,fsr2l
  1450   0016E4  C03A  FFDA         	movff	EUSART_BaudRate_Calculations@eusar+1,fsr2h
  1451   0016E8  CFDE F002          	movff	postinc2,___xxtofl@val
  1452   0016EC  CFDE F003          	movff	postinc2,___xxtofl@val+1
  1453   0016F0  CFDE F004          	movff	postinc2,___xxtofl@val+2
  1454   0016F4  CFDE F005          	movff	postinc2,___xxtofl@val+3
  1455   0016F8  0E00               	movlw	0
  1456   0016FA  EC4E  F010         	call	___xxtofl
  1457   0016FE  C002  F014         	movff	?___xxtofl,___fldiv@a
  1458   001702  C003  F015         	movff	?___xxtofl+1,___fldiv@a+1
  1459   001706  C004  F016         	movff	?___xxtofl+2,___fldiv@a+2
  1460   00170A  C005  F017         	movff	?___xxtofl+3,___fldiv@a+3
  1461   00170E  0E00               	movlw	0
  1462   001710  6E10               	movwf	___fldiv@b^0,c
  1463   001712  0E24               	movlw	36
  1464   001714  6E11               	movwf	(___fldiv@b+1)^0,c
  1465   001716  0E74               	movlw	116
  1466   001718  6E12               	movwf	(___fldiv@b+2)^0,c
  1467   00171A  0E4A               	movlw	74
  1468   00171C  6E13               	movwf	(___fldiv@b+3)^0,c
  1469   00171E  EC81  F00E         	call	___fldiv	;wreg free
  1470   001722  C010  F041         	movff	?___fldiv,_EUSART_BaudRate_Calculations$4767
  1471   001726  C011  F042         	movff	?___fldiv+1,_EUSART_BaudRate_Calculations$4767+1
  1472   00172A  C012  F043         	movff	?___fldiv+2,_EUSART_BaudRate_Calculations$4767+2
  1473   00172E  C013  F044         	movff	?___fldiv+3,_EUSART_BaudRate_Calculations$4767+3
  1474   001732  0E00               	movlw	0
  1475   001734  6E14               	movwf	___fldiv@a^0,c
  1476   001736  0E00               	movlw	0
  1477   001738  6E15               	movwf	(___fldiv@a+1)^0,c
  1478   00173A  0E80               	movlw	128
  1479   00173C  6E16               	movwf	(___fldiv@a+2)^0,c
  1480   00173E  0E40               	movlw	64
  1481   001740  6E17               	movwf	(___fldiv@a+3)^0,c
  1482   001742  C041  F010         	movff	_EUSART_BaudRate_Calculations$4767,___fldiv@b
  1483   001746  C042  F011         	movff	_EUSART_BaudRate_Calculations$4767+1,___fldiv@b+1
  1484   00174A  C043  F012         	movff	_EUSART_BaudRate_Calculations$4767+2,___fldiv@b+2
  1485   00174E  C044  F013         	movff	_EUSART_BaudRate_Calculations$4767+3,___fldiv@b+3
  1486   001752  EC81  F00E         	call	___fldiv	;wreg free
  1487   001756  C010  F029         	movff	?___fldiv,___fladd@b
  1488   00175A  C011  F02A         	movff	?___fldiv+1,___fladd@b+1
  1489   00175E  C012  F02B         	movff	?___fldiv+2,___fladd@b+2
  1490   001762  C013  F02C         	movff	?___fldiv+3,___fladd@b+3
  1491   001766  0E00               	movlw	0
  1492   001768  6E2D               	movwf	___fladd@a^0,c
  1493   00176A  0E00               	movlw	0
  1494   00176C  6E2E               	movwf	(___fladd@a+1)^0,c
  1495   00176E  0E80               	movlw	128
  1496   001770  6E2F               	movwf	(___fladd@a+2)^0,c
  1497   001772  0EBF               	movlw	191
  1498   001774  6E30               	movwf	(___fladd@a+3)^0,c
  1499   001776  EC0D  F008         	call	___fladd	;wreg free
  1500                           
  1501                           ;MCAL_Layer/UART/hal_uart.c: 152:             break;
  1502   00177A  EFAD  F00C         	goto	l1475
  1503   00177E                     l1472:
  1504                           
  1505                           ;MCAL_Layer/UART/hal_uart.c: 154:             TXSTAbits.SYNC = 1;
  1506   00177E  88AC               	bsf	172,4,c	;volatile
  1507                           
  1508                           ;MCAL_Layer/UART/hal_uart.c: 155:             BAUDCONbits.BRG16 = 0;
  1509   001780  96B8               	bcf	184,3,c	;volatile
  1510   001782                     
  1511                           ;MCAL_Layer/UART/hal_uart.c: 156:             BaudRate_Temp = ((4000000UL /(float)eusar-
      +                          >baudrate)/ 4) - 1;
  1512   001782  C039  FFD9         	movff	EUSART_BaudRate_Calculations@eusar,fsr2l
  1513   001786  C03A  FFDA         	movff	EUSART_BaudRate_Calculations@eusar+1,fsr2h
  1514   00178A  CFDE F002          	movff	postinc2,___xxtofl@val
  1515   00178E  CFDE F003          	movff	postinc2,___xxtofl@val+1
  1516   001792  CFDE F004          	movff	postinc2,___xxtofl@val+2
  1517   001796  CFDE F005          	movff	postinc2,___xxtofl@val+3
  1518   00179A  0E00               	movlw	0
  1519   00179C  EC4E  F010         	call	___xxtofl
  1520   0017A0  C002  F014         	movff	?___xxtofl,___fldiv@a
  1521   0017A4  C003  F015         	movff	?___xxtofl+1,___fldiv@a+1
  1522   0017A8  C004  F016         	movff	?___xxtofl+2,___fldiv@a+2
  1523   0017AC  C005  F017         	movff	?___xxtofl+3,___fldiv@a+3
  1524   0017B0  0E00               	movlw	0
  1525   0017B2  6E10               	movwf	___fldiv@b^0,c
  1526   0017B4  0E24               	movlw	36
  1527   0017B6  6E11               	movwf	(___fldiv@b+1)^0,c
  1528   0017B8  0E74               	movlw	116
  1529   0017BA  6E12               	movwf	(___fldiv@b+2)^0,c
  1530   0017BC  0E4A               	movlw	74
  1531   0017BE  6E13               	movwf	(___fldiv@b+3)^0,c
  1532   0017C0  EC81  F00E         	call	___fldiv	;wreg free
  1533   0017C4  C010  F041         	movff	?___fldiv,_EUSART_BaudRate_Calculations$4767
  1534   0017C8  C011  F042         	movff	?___fldiv+1,_EUSART_BaudRate_Calculations$4767+1
  1535   0017CC  C012  F043         	movff	?___fldiv+2,_EUSART_BaudRate_Calculations$4767+2
  1536   0017D0  C013  F044         	movff	?___fldiv+3,_EUSART_BaudRate_Calculations$4767+3
  1537   0017D4  0E00               	movlw	0
  1538   0017D6  6E14               	movwf	___fldiv@a^0,c
  1539   0017D8  0E00               	movlw	0
  1540   0017DA  6E15               	movwf	(___fldiv@a+1)^0,c
  1541   0017DC  0E80               	movlw	128
  1542   0017DE  6E16               	movwf	(___fldiv@a+2)^0,c
  1543   0017E0  0E40               	movlw	64
  1544   0017E2  6E17               	movwf	(___fldiv@a+3)^0,c
  1545   0017E4  C041  F010         	movff	_EUSART_BaudRate_Calculations$4767,___fldiv@b
  1546   0017E8  C042  F011         	movff	_EUSART_BaudRate_Calculations$4767+1,___fldiv@b+1
  1547   0017EC  C043  F012         	movff	_EUSART_BaudRate_Calculations$4767+2,___fldiv@b+2
  1548   0017F0  C044  F013         	movff	_EUSART_BaudRate_Calculations$4767+3,___fldiv@b+3
  1549   0017F4  EC81  F00E         	call	___fldiv	;wreg free
  1550   0017F8  C010  F029         	movff	?___fldiv,___fladd@b
  1551   0017FC  C011  F02A         	movff	?___fldiv+1,___fladd@b+1
  1552   001800  C012  F02B         	movff	?___fldiv+2,___fladd@b+2
  1553   001804  C013  F02C         	movff	?___fldiv+3,___fladd@b+3
  1554   001808  0E00               	movlw	0
  1555   00180A  6E2D               	movwf	___fladd@a^0,c
  1556   00180C  0E00               	movlw	0
  1557   00180E  6E2E               	movwf	(___fladd@a+1)^0,c
  1558   001810  0E80               	movlw	128
  1559   001812  6E2F               	movwf	(___fladd@a+2)^0,c
  1560   001814  0EBF               	movlw	191
  1561   001816  6E30               	movwf	(___fladd@a+3)^0,c
  1562   001818  EC0D  F008         	call	___fladd	;wreg free
  1563                           
  1564                           ;MCAL_Layer/UART/hal_uart.c: 157:             break;
  1565   00181C  EFAD  F00C         	goto	l1475
  1566   001820                     l1473:
  1567                           
  1568                           ;MCAL_Layer/UART/hal_uart.c: 159:             TXSTAbits.SYNC = 1;
  1569   001820  88AC               	bsf	172,4,c	;volatile
  1570                           
  1571                           ;MCAL_Layer/UART/hal_uart.c: 160:             BAUDCONbits.BRG16 = 1;
  1572   001822  86B8               	bsf	184,3,c	;volatile
  1573   001824                     
  1574                           ;MCAL_Layer/UART/hal_uart.c: 161:             BaudRate_Temp = ((4000000UL /(float)eusar-
      +                          >baudrate)/ 4) - 1;
  1575   001824  C039  FFD9         	movff	EUSART_BaudRate_Calculations@eusar,fsr2l
  1576   001828  C03A  FFDA         	movff	EUSART_BaudRate_Calculations@eusar+1,fsr2h
  1577   00182C  CFDE F002          	movff	postinc2,___xxtofl@val
  1578   001830  CFDE F003          	movff	postinc2,___xxtofl@val+1
  1579   001834  CFDE F004          	movff	postinc2,___xxtofl@val+2
  1580   001838  CFDE F005          	movff	postinc2,___xxtofl@val+3
  1581   00183C  0E00               	movlw	0
  1582   00183E  EC4E  F010         	call	___xxtofl
  1583   001842  C002  F014         	movff	?___xxtofl,___fldiv@a
  1584   001846  C003  F015         	movff	?___xxtofl+1,___fldiv@a+1
  1585   00184A  C004  F016         	movff	?___xxtofl+2,___fldiv@a+2
  1586   00184E  C005  F017         	movff	?___xxtofl+3,___fldiv@a+3
  1587   001852  0E00               	movlw	0
  1588   001854  6E10               	movwf	___fldiv@b^0,c
  1589   001856  0E24               	movlw	36
  1590   001858  6E11               	movwf	(___fldiv@b+1)^0,c
  1591   00185A  0E74               	movlw	116
  1592   00185C  6E12               	movwf	(___fldiv@b+2)^0,c
  1593   00185E  0E4A               	movlw	74
  1594   001860  6E13               	movwf	(___fldiv@b+3)^0,c
  1595   001862  EC81  F00E         	call	___fldiv	;wreg free
  1596   001866  C010  F041         	movff	?___fldiv,_EUSART_BaudRate_Calculations$4767
  1597   00186A  C011  F042         	movff	?___fldiv+1,_EUSART_BaudRate_Calculations$4767+1
  1598   00186E  C012  F043         	movff	?___fldiv+2,_EUSART_BaudRate_Calculations$4767+2
  1599   001872  C013  F044         	movff	?___fldiv+3,_EUSART_BaudRate_Calculations$4767+3
  1600   001876  0E00               	movlw	0
  1601   001878  6E14               	movwf	___fldiv@a^0,c
  1602   00187A  0E00               	movlw	0
  1603   00187C  6E15               	movwf	(___fldiv@a+1)^0,c
  1604   00187E  0E80               	movlw	128
  1605   001880  6E16               	movwf	(___fldiv@a+2)^0,c
  1606   001882  0E40               	movlw	64
  1607   001884  6E17               	movwf	(___fldiv@a+3)^0,c
  1608   001886  C041  F010         	movff	_EUSART_BaudRate_Calculations$4767,___fldiv@b
  1609   00188A  C042  F011         	movff	_EUSART_BaudRate_Calculations$4767+1,___fldiv@b+1
  1610   00188E  C043  F012         	movff	_EUSART_BaudRate_Calculations$4767+2,___fldiv@b+2
  1611   001892  C044  F013         	movff	_EUSART_BaudRate_Calculations$4767+3,___fldiv@b+3
  1612   001896  EC81  F00E         	call	___fldiv	;wreg free
  1613   00189A  C010  F029         	movff	?___fldiv,___fladd@b
  1614   00189E  C011  F02A         	movff	?___fldiv+1,___fladd@b+1
  1615   0018A2  C012  F02B         	movff	?___fldiv+2,___fladd@b+2
  1616   0018A6  C013  F02C         	movff	?___fldiv+3,___fladd@b+3
  1617   0018AA  0E00               	movlw	0
  1618   0018AC  6E2D               	movwf	___fladd@a^0,c
  1619   0018AE  0E00               	movlw	0
  1620   0018B0  6E2E               	movwf	(___fladd@a+1)^0,c
  1621   0018B2  0E80               	movlw	128
  1622   0018B4  6E2F               	movwf	(___fladd@a+2)^0,c
  1623   0018B6  0EBF               	movlw	191
  1624   0018B8  6E30               	movwf	(___fladd@a+3)^0,c
  1625   0018BA  EC0D  F008         	call	___fladd	;wreg free
  1626                           
  1627                           ;MCAL_Layer/UART/hal_uart.c: 162:             break;
  1628   0018BE  EFAD  F00C         	goto	l1475
  1629   0018C2                     l5654:
  1630                           
  1631                           ;MCAL_Layer/UART/hal_uart.c: 164:         SPBRG = (uint_8)((uint_32)BaudRate_Temp);
  1632   0018C2  C03D  F002         	movff	EUSART_BaudRate_Calculations@BaudRate_Temp,___fltol@f1
  1633   0018C6  C03E  F003         	movff	EUSART_BaudRate_Calculations@BaudRate_Temp+1,___fltol@f1+1
  1634   0018CA  C03F  F004         	movff	EUSART_BaudRate_Calculations@BaudRate_Temp+2,___fltol@f1+2
  1635   0018CE  C040  F005         	movff	EUSART_BaudRate_Calculations@BaudRate_Temp+3,___fltol@f1+3
  1636   0018D2  EC68  F012         	call	___fltol	;wreg free
  1637   0018D6  5002               	movf	?___fltol^0,w,c
  1638   0018D8  6EAF               	movwf	175,c	;volatile
  1639                           
  1640                           ;MCAL_Layer/UART/hal_uart.c: 165:         SPBRGH = (uint_8)(((uint_32)BaudRate_Temp) >> 
      +                          8);
  1641   0018DA  C03D  F002         	movff	EUSART_BaudRate_Calculations@BaudRate_Temp,___fltol@f1
  1642   0018DE  C03E  F003         	movff	EUSART_BaudRate_Calculations@BaudRate_Temp+1,___fltol@f1+1
  1643   0018E2  C03F  F004         	movff	EUSART_BaudRate_Calculations@BaudRate_Temp+2,___fltol@f1+2
  1644   0018E6  C040  F005         	movff	EUSART_BaudRate_Calculations@BaudRate_Temp+3,___fltol@f1+3
  1645   0018EA  EC68  F012         	call	___fltol	;wreg free
  1646   0018EE  C003  F002         	movff	?___fltol+1,?___fltol
  1647   0018F2  C004  F003         	movff	?___fltol+2,?___fltol+1
  1648   0018F6  C005  F004         	movff	?___fltol+3,?___fltol+2
  1649   0018FA  6A05               	clrf	(?___fltol+3)^0,c
  1650   0018FC  5002               	movf	?___fltol^0,w,c
  1651   0018FE  6EB0               	movwf	176,c	;volatile
  1652                           
  1653                           ;MCAL_Layer/UART/hal_uart.c: 166:     }
  1654   001900  EFAD  F00C         	goto	l1475
  1655   001904                     l5656:
  1656   001904  EE20 F004          	lfsr	2,4
  1657   001908  5039               	movf	EUSART_BaudRate_Calculations@eusar^0,w,c
  1658   00190A  26D9               	addwf	fsr2l,f,c
  1659   00190C  503A               	movf	(EUSART_BaudRate_Calculations@eusar+1)^0,w,c
  1660   00190E  22DA               	addwfc	fsr2h,f,c
  1661   001910  50DF               	movf	indf2,w,c
  1662   001912  6E3B               	movwf	??_EUSART_BaudRate_Calculations^0,c
  1663   001914  6A3C               	clrf	(??_EUSART_BaudRate_Calculations+1)^0,c
  1664                           
  1665                           ; Switch on 2 bytes has been partitioned into a top level switch of size 1, and 1 sub-sw
      +                          itches
  1666                           ; Switch size 1, requested type "simple"
  1667                           ; Number of cases is 1, Range of values is 0 to 0
  1668                           ; switch strategies available:
  1669                           ; Name         Instructions Cycles
  1670                           ; simple_byte            4     3 (average)
  1671                           ;	Chosen strategy is simple_byte
  1672   001916  503C               	movf	(??_EUSART_BaudRate_Calculations+1)^0,w,c
  1673   001918  0A00               	xorlw	0	; case 0
  1674   00191A  B4D8               	btfsc	status,2,c
  1675   00191C  EF92  F00C         	goto	l7242
  1676   001920  EF61  F00C         	goto	l5654
  1677   001924                     l7242:
  1678                           
  1679                           ; Switch size 1, requested type "simple"
  1680                           ; Number of cases is 6, Range of values is 0 to 5
  1681                           ; switch strategies available:
  1682                           ; Name         Instructions Cycles
  1683                           ; simple_byte           19    10 (average)
  1684                           ;	Chosen strategy is simple_byte
  1685   001924  503B               	movf	??_EUSART_BaudRate_Calculations^0,w,c
  1686   001926  0A00               	xorlw	0	; case 0
  1687   001928  B4D8               	btfsc	status,2,c
  1688   00192A  EF77  F00A         	goto	l1467
  1689   00192E  0A01               	xorlw	1	; case 1
  1690   001930  B4D8               	btfsc	status,2,c
  1691   001932  EFC9  F00A         	goto	l1469
  1692   001936  0A03               	xorlw	3	; case 2
  1693   001938  B4D8               	btfsc	status,2,c
  1694   00193A  EF1B  F00B         	goto	l1470
  1695   00193E  0A01               	xorlw	1	; case 3
  1696   001940  B4D8               	btfsc	status,2,c
  1697   001942  EF6D  F00B         	goto	l1471
  1698   001946  0A07               	xorlw	7	; case 4
  1699   001948  B4D8               	btfsc	status,2,c
  1700   00194A  EFBF  F00B         	goto	l1472
  1701   00194E  0A01               	xorlw	1	; case 5
  1702   001950  B4D8               	btfsc	status,2,c
  1703   001952  EF10  F00C         	goto	l1473
  1704   001956  EF61  F00C         	goto	l5654
  1705   00195A                     l1475:
  1706   00195A  0012               	return		;funcret
  1707   00195C                     __end_of_EUSART_BaudRate_Calculations:
  1708                           	callstack 0
  1709                           
  1710 ;; *************** function ___xxtofl *****************
  1711 ;; Defined at:
  1712 ;;		line 10 in file "D:\Embeded-Compiler\pic\sources\c99\common\xxtofl.c"
  1713 ;; Parameters:    Size  Location     Type
  1714 ;;  sign            1    wreg     unsigned char 
  1715 ;;  val             4    1[COMRAM] long 
  1716 ;; Auto vars:     Size  Location     Type
  1717 ;;  sign            1    9[COMRAM] unsigned char 
  1718 ;;  arg             4   11[COMRAM] unsigned long 
  1719 ;;  exp             1   10[COMRAM] unsigned char 
  1720 ;; Return value:  Size  Location     Type
  1721 ;;                  4    1[COMRAM] unsigned char 
  1722 ;; Registers used:
  1723 ;;		wreg, status,2, status,0
  1724 ;; Tracked objects:
  1725 ;;		On entry : 0/0
  1726 ;;		On exit  : 0/0
  1727 ;;		Unchanged: 0/0
  1728 ;; Data sizes:     COMRAM   BANK0   BANK1   BANK2   BANK3   BANK4   BANK5   BANK6   BANK7   BANK8   BANK9  BANK10  BANK1
      +1  BANK12  BANK13  BANK14  BANK15
  1729 ;;      Params:         4       0       0       0       0       0       0       0       0       0       0       0       
      +0       0       0       0       0
  1730 ;;      Locals:         6       0       0       0       0       0       0       0       0       0       0       0       
      +0       0       0       0       0
  1731 ;;      Temps:          4       0       0       0       0       0       0       0       0       0       0       0       
      +0       0       0       0       0
  1732 ;;      Totals:        14       0       0       0       0       0       0       0       0       0       0       0       
      +0       0       0       0       0
  1733 ;;Total ram usage:       14 bytes
  1734 ;; Hardware stack levels used: 1
  1735 ;; Hardware stack levels required when called: 2
  1736 ;; This function calls:
  1737 ;;		Nothing
  1738 ;; This function is called by:
  1739 ;;		_EUSART_BaudRate_Calculations
  1740 ;;		_CCP_PWM_Init
  1741 ;;		_CCP_PWM_Set_Duty
  1742 ;; This function uses a non-reentrant model
  1743 ;;
  1744                           
  1745                           	psect	text4
  1746   00209C                     __ptext4:
  1747                           	callstack 0
  1748   00209C                     ___xxtofl:
  1749                           	callstack 25
  1750                           
  1751                           ;incstack = 0
  1752                           ;___xxtofl@sign stored from wreg
  1753   00209C  6E0A               	movwf	___xxtofl@sign^0,c
  1754   00209E  500A               	movf	___xxtofl@sign^0,w,c
  1755   0020A0  B4D8               	btfsc	status,2,c
  1756   0020A2  EF55  F010         	goto	u4591
  1757   0020A6  EF57  F010         	goto	u4590
  1758   0020AA                     u4591:
  1759   0020AA  EF79  F010         	goto	l2173
  1760   0020AE                     u4590:
  1761   0020AE  BE05               	btfsc	(___xxtofl@val+3)^0,7,c
  1762   0020B0  EF5E  F010         	goto	u4600
  1763   0020B4  EF5C  F010         	goto	u4601
  1764   0020B8                     u4601:
  1765   0020B8  EF79  F010         	goto	l2173
  1766   0020BC                     u4600:
  1767   0020BC  C002  F006         	movff	___xxtofl@val,??___xxtofl
  1768   0020C0  C003  F007         	movff	___xxtofl@val+1,??___xxtofl+1
  1769   0020C4  C004  F008         	movff	___xxtofl@val+2,??___xxtofl+2
  1770   0020C8  C005  F009         	movff	___xxtofl@val+3,??___xxtofl+3
  1771   0020CC  1E06               	comf	??___xxtofl^0,f,c
  1772   0020CE  1E07               	comf	(??___xxtofl+1)^0,f,c
  1773   0020D0  1E08               	comf	(??___xxtofl+2)^0,f,c
  1774   0020D2  1E09               	comf	(??___xxtofl+3)^0,f,c
  1775   0020D4  2A06               	incf	??___xxtofl^0,f,c
  1776   0020D6  0E00               	movlw	0
  1777   0020D8  2207               	addwfc	(??___xxtofl+1)^0,f,c
  1778   0020DA  2208               	addwfc	(??___xxtofl+2)^0,f,c
  1779   0020DC  2209               	addwfc	(??___xxtofl+3)^0,f,c
  1780   0020DE  C006  F00C         	movff	??___xxtofl,___xxtofl@arg
  1781   0020E2  C007  F00D         	movff	??___xxtofl+1,___xxtofl@arg+1
  1782   0020E6  C008  F00E         	movff	??___xxtofl+2,___xxtofl@arg+2
  1783   0020EA  C009  F00F         	movff	??___xxtofl+3,___xxtofl@arg+3
  1784   0020EE  EF81  F010         	goto	l5512
  1785   0020F2                     l2173:
  1786   0020F2  C002  F00C         	movff	___xxtofl@val,___xxtofl@arg
  1787   0020F6  C003  F00D         	movff	___xxtofl@val+1,___xxtofl@arg+1
  1788   0020FA  C004  F00E         	movff	___xxtofl@val+2,___xxtofl@arg+2
  1789   0020FE  C005  F00F         	movff	___xxtofl@val+3,___xxtofl@arg+3
  1790   002102                     l5512:
  1791   002102  5002               	movf	___xxtofl@val^0,w,c
  1792   002104  1003               	iorwf	(___xxtofl@val+1)^0,w,c
  1793   002106  1004               	iorwf	(___xxtofl@val+2)^0,w,c
  1794   002108  1005               	iorwf	(___xxtofl@val+3)^0,w,c
  1795   00210A  A4D8               	btfss	status,2,c
  1796   00210C  EF8A  F010         	goto	u4611
  1797   002110  EF8C  F010         	goto	u4610
  1798   002114                     u4611:
  1799   002114  EF96  F010         	goto	l5518
  1800   002118                     u4610:
  1801   002118  0E00               	movlw	0
  1802   00211A  6E02               	movwf	?___xxtofl^0,c
  1803   00211C  0E00               	movlw	0
  1804   00211E  6E03               	movwf	(?___xxtofl+1)^0,c
  1805   002120  0E00               	movlw	0
  1806   002122  6E04               	movwf	(?___xxtofl+2)^0,c
  1807   002124  0E00               	movlw	0
  1808   002126  6E05               	movwf	(?___xxtofl+3)^0,c
  1809   002128  EF27  F011         	goto	l2176
  1810   00212C                     l5518:
  1811   00212C  0E96               	movlw	150
  1812   00212E  6E0B               	movwf	___xxtofl@exp^0,c
  1813   002130  EFA0  F010         	goto	l5522
  1814   002134                     l5520:
  1815   002134  2A0B               	incf	___xxtofl@exp^0,f,c
  1816   002136  90D8               	bcf	status,0,c
  1817   002138  320F               	rrcf	(___xxtofl@arg+3)^0,f,c
  1818   00213A  320E               	rrcf	(___xxtofl@arg+2)^0,f,c
  1819   00213C  320D               	rrcf	(___xxtofl@arg+1)^0,f,c
  1820   00213E  320C               	rrcf	___xxtofl@arg^0,f,c
  1821   002140                     l5522:
  1822   002140  0E00               	movlw	0
  1823   002142  140C               	andwf	___xxtofl@arg^0,w,c
  1824   002144  6E06               	movwf	??___xxtofl^0,c
  1825   002146  0E00               	movlw	0
  1826   002148  140D               	andwf	(___xxtofl@arg+1)^0,w,c
  1827   00214A  6E07               	movwf	(??___xxtofl+1)^0,c
  1828   00214C  0E00               	movlw	0
  1829   00214E  140E               	andwf	(___xxtofl@arg+2)^0,w,c
  1830   002150  6E08               	movwf	(??___xxtofl+2)^0,c
  1831   002152  0EFE               	movlw	254
  1832   002154  140F               	andwf	(___xxtofl@arg+3)^0,w,c
  1833   002156  6E09               	movwf	(??___xxtofl+3)^0,c
  1834   002158  5006               	movf	??___xxtofl^0,w,c
  1835   00215A  1007               	iorwf	(??___xxtofl+1)^0,w,c
  1836   00215C  1008               	iorwf	(??___xxtofl+2)^0,w,c
  1837   00215E  1009               	iorwf	(??___xxtofl+3)^0,w,c
  1838   002160  A4D8               	btfss	status,2,c
  1839   002162  EFB5  F010         	goto	u4621
  1840   002166  EFB7  F010         	goto	u4620
  1841   00216A                     u4621:
  1842   00216A  EF9A  F010         	goto	l5520
  1843   00216E                     u4620:
  1844   00216E  EFC5  F010         	goto	l2180
  1845   002172                     l5524:
  1846   002172  2A0B               	incf	___xxtofl@exp^0,f,c
  1847   002174  0E01               	movlw	1
  1848   002176  260C               	addwf	___xxtofl@arg^0,f,c
  1849   002178  0E00               	movlw	0
  1850   00217A  220D               	addwfc	(___xxtofl@arg+1)^0,f,c
  1851   00217C  220E               	addwfc	(___xxtofl@arg+2)^0,f,c
  1852   00217E  220F               	addwfc	(___xxtofl@arg+3)^0,f,c
  1853   002180  90D8               	bcf	status,0,c
  1854   002182  320F               	rrcf	(___xxtofl@arg+3)^0,f,c
  1855   002184  320E               	rrcf	(___xxtofl@arg+2)^0,f,c
  1856   002186  320D               	rrcf	(___xxtofl@arg+1)^0,f,c
  1857   002188  320C               	rrcf	___xxtofl@arg^0,f,c
  1858   00218A                     l2180:
  1859   00218A  0E00               	movlw	0
  1860   00218C  140C               	andwf	___xxtofl@arg^0,w,c
  1861   00218E  6E06               	movwf	??___xxtofl^0,c
  1862   002190  0E00               	movlw	0
  1863   002192  140D               	andwf	(___xxtofl@arg+1)^0,w,c
  1864   002194  6E07               	movwf	(??___xxtofl+1)^0,c
  1865   002196  0E00               	movlw	0
  1866   002198  140E               	andwf	(___xxtofl@arg+2)^0,w,c
  1867   00219A  6E08               	movwf	(??___xxtofl+2)^0,c
  1868   00219C  0EFF               	movlw	255
  1869   00219E  140F               	andwf	(___xxtofl@arg+3)^0,w,c
  1870   0021A0  6E09               	movwf	(??___xxtofl+3)^0,c
  1871   0021A2  5006               	movf	??___xxtofl^0,w,c
  1872   0021A4  1007               	iorwf	(??___xxtofl+1)^0,w,c
  1873   0021A6  1008               	iorwf	(??___xxtofl+2)^0,w,c
  1874   0021A8  1009               	iorwf	(??___xxtofl+3)^0,w,c
  1875   0021AA  A4D8               	btfss	status,2,c
  1876   0021AC  EFDA  F010         	goto	u4631
  1877   0021B0  EFDC  F010         	goto	u4630
  1878   0021B4                     u4631:
  1879   0021B4  EFB9  F010         	goto	l5524
  1880   0021B8                     u4630:
  1881   0021B8  EFE4  F010         	goto	l5532
  1882   0021BC                     l5530:
  1883   0021BC  060B               	decf	___xxtofl@exp^0,f,c
  1884   0021BE  90D8               	bcf	status,0,c
  1885   0021C0  360C               	rlcf	___xxtofl@arg^0,f,c
  1886   0021C2  360D               	rlcf	(___xxtofl@arg+1)^0,f,c
  1887   0021C4  360E               	rlcf	(___xxtofl@arg+2)^0,f,c
  1888   0021C6  360F               	rlcf	(___xxtofl@arg+3)^0,f,c
  1889   0021C8                     l5532:
  1890   0021C8  BE0E               	btfsc	(___xxtofl@arg+2)^0,7,c
  1891   0021CA  EFE9  F010         	goto	u4641
  1892   0021CE  EFEB  F010         	goto	u4640
  1893   0021D2                     u4641:
  1894   0021D2  EFF3  F010         	goto	l2187
  1895   0021D6                     u4640:
  1896   0021D6  0E02               	movlw	2
  1897   0021D8  600B               	cpfslt	___xxtofl@exp^0,c
  1898   0021DA  EFF1  F010         	goto	u4651
  1899   0021DE  EFF3  F010         	goto	u4650
  1900   0021E2                     u4651:
  1901   0021E2  EFDE  F010         	goto	l5530
  1902   0021E6                     u4650:
  1903   0021E6                     l2187:
  1904   0021E6  B00B               	btfsc	___xxtofl@exp^0,0,c
  1905   0021E8  EFF8  F010         	goto	u4661
  1906   0021EC  EFFA  F010         	goto	u4660
  1907   0021F0                     u4661:
  1908   0021F0  EFFB  F010         	goto	l5538
  1909   0021F4                     u4660:
  1910   0021F4  9E0E               	bcf	(___xxtofl@arg+2)^0,7,c
  1911   0021F6                     l5538:
  1912   0021F6  90D8               	bcf	status,0,c
  1913   0021F8  320B               	rrcf	___xxtofl@exp^0,f,c
  1914   0021FA  C00B  F006         	movff	___xxtofl@exp,??___xxtofl
  1915   0021FE  6A07               	clrf	(??___xxtofl+1)^0,c
  1916   002200  6A08               	clrf	(??___xxtofl+2)^0,c
  1917   002202  6A09               	clrf	(??___xxtofl+3)^0,c
  1918   002204  C006  F009         	movff	??___xxtofl,??___xxtofl+3
  1919   002208  6A08               	clrf	(??___xxtofl+2)^0,c
  1920   00220A  6A07               	clrf	(??___xxtofl+1)^0,c
  1921   00220C  6A06               	clrf	??___xxtofl^0,c
  1922   00220E  5006               	movf	??___xxtofl^0,w,c
  1923   002210  120C               	iorwf	___xxtofl@arg^0,f,c
  1924   002212  5007               	movf	(??___xxtofl+1)^0,w,c
  1925   002214  120D               	iorwf	(___xxtofl@arg+1)^0,f,c
  1926   002216  5008               	movf	(??___xxtofl+2)^0,w,c
  1927   002218  120E               	iorwf	(___xxtofl@arg+2)^0,f,c
  1928   00221A  5009               	movf	(??___xxtofl+3)^0,w,c
  1929   00221C  120F               	iorwf	(___xxtofl@arg+3)^0,f,c
  1930   00221E  500A               	movf	___xxtofl@sign^0,w,c
  1931   002220  B4D8               	btfsc	status,2,c
  1932   002222  EF15  F011         	goto	u4671
  1933   002226  EF17  F011         	goto	u4670
  1934   00222A                     u4671:
  1935   00222A  EF1F  F011         	goto	l5548
  1936   00222E                     u4670:
  1937   00222E  BE05               	btfsc	(___xxtofl@val+3)^0,7,c
  1938   002230  EF1E  F011         	goto	u4680
  1939   002234  EF1C  F011         	goto	u4681
  1940   002238                     u4681:
  1941   002238  EF1F  F011         	goto	l5548
  1942   00223C                     u4680:
  1943   00223C  8E0F               	bsf	(___xxtofl@arg+3)^0,7,c
  1944   00223E                     l5548:
  1945   00223E  C00C  F002         	movff	___xxtofl@arg,?___xxtofl
  1946   002242  C00D  F003         	movff	___xxtofl@arg+1,?___xxtofl+1
  1947   002246  C00E  F004         	movff	___xxtofl@arg+2,?___xxtofl+2
  1948   00224A  C00F  F005         	movff	___xxtofl@arg+3,?___xxtofl+3
  1949   00224E                     l2176:
  1950   00224E  0012               	return		;funcret
  1951   002250                     __end_of___xxtofl:
  1952                           	callstack 0
  1953                           
  1954 ;; *************** function ___fltol *****************
  1955 ;; Defined at:
  1956 ;;		line 43 in file "D:\Embeded-Compiler\pic\sources\c99\common\fltol.c"
  1957 ;; Parameters:    Size  Location     Type
  1958 ;;  f1              4    1[COMRAM] unsigned char 
  1959 ;; Auto vars:     Size  Location     Type
  1960 ;;  exp1            1   10[COMRAM] unsigned char 
  1961 ;;  sign1           1    9[COMRAM] unsigned char 
  1962 ;; Return value:  Size  Location     Type
  1963 ;;                  4    1[COMRAM] long 
  1964 ;; Registers used:
  1965 ;;		wreg, status,2, status,0
  1966 ;; Tracked objects:
  1967 ;;		On entry : 0/0
  1968 ;;		On exit  : 0/0
  1969 ;;		Unchanged: 0/0
  1970 ;; Data sizes:     COMRAM   BANK0   BANK1   BANK2   BANK3   BANK4   BANK5   BANK6   BANK7   BANK8   BANK9  BANK10  BANK1
      +1  BANK12  BANK13  BANK14  BANK15
  1971 ;;      Params:         4       0       0       0       0       0       0       0       0       0       0       0       
      +0       0       0       0       0
  1972 ;;      Locals:         2       0       0       0       0       0       0       0       0       0       0       0       
      +0       0       0       0       0
  1973 ;;      Temps:          4       0       0       0       0       0       0       0       0       0       0       0       
      +0       0       0       0       0
  1974 ;;      Totals:        10       0       0       0       0       0       0       0       0       0       0       0       
      +0       0       0       0       0
  1975 ;;Total ram usage:       10 bytes
  1976 ;; Hardware stack levels used: 1
  1977 ;; Hardware stack levels required when called: 2
  1978 ;; This function calls:
  1979 ;;		Nothing
  1980 ;; This function is called by:
  1981 ;;		_EUSART_BaudRate_Calculations
  1982 ;;		_CCP_PWM_Init
  1983 ;;		_CCP_PWM_Set_Duty
  1984 ;; This function uses a non-reentrant model
  1985 ;;
  1986                           
  1987                           	psect	text5
  1988   0024D0                     __ptext5:
  1989                           	callstack 0
  1990   0024D0                     ___fltol:
  1991                           	callstack 25
  1992   0024D0  3404               	rlcf	(___fltol@f1+2)^0,w,c
  1993   0024D2  3405               	rlcf	(___fltol@f1+3)^0,w,c
  1994   0024D4  6E0B               	movwf	___fltol@exp1^0,c
  1995   0024D6  500B               	movf	___fltol@exp1^0,w,c
  1996   0024D8  A4D8               	btfss	status,2,c
  1997   0024DA  EF71  F012         	goto	u4521
  1998   0024DE  EF73  F012         	goto	u4520
  1999   0024E2                     u4521:
  2000   0024E2  EF7D  F012         	goto	l5468
  2001   0024E6                     u4520:
  2002   0024E6                     l5464:
  2003   0024E6  0E00               	movlw	0
  2004   0024E8  6E02               	movwf	?___fltol^0,c
  2005   0024EA  0E00               	movlw	0
  2006   0024EC  6E03               	movwf	(?___fltol+1)^0,c
  2007   0024EE  0E00               	movlw	0
  2008   0024F0  6E04               	movwf	(?___fltol+2)^0,c
  2009   0024F2  0E00               	movlw	0
  2010   0024F4  6E05               	movwf	(?___fltol+3)^0,c
  2011   0024F6  EFEA  F012         	goto	l1815
  2012   0024FA                     l5468:
  2013   0024FA  C002  F006         	movff	___fltol@f1,??___fltol
  2014   0024FE  C003  F007         	movff	___fltol@f1+1,??___fltol+1
  2015   002502  C004  F008         	movff	___fltol@f1+2,??___fltol+2
  2016   002506  C005  F009         	movff	___fltol@f1+3,??___fltol+3
  2017   00250A  0E20               	movlw	32
  2018   00250C  EF8D  F012         	goto	u4530
  2019   002510                     u4535:
  2020   002510  90D8               	bcf	status,0,c
  2021   002512  3209               	rrcf	(??___fltol+3)^0,f,c
  2022   002514  3208               	rrcf	(??___fltol+2)^0,f,c
  2023   002516  3207               	rrcf	(??___fltol+1)^0,f,c
  2024   002518  3206               	rrcf	??___fltol^0,f,c
  2025   00251A                     u4530:
  2026   00251A  2EE8               	decfsz	wreg,f,c
  2027   00251C  EF88  F012         	goto	u4535
  2028   002520  5006               	movf	??___fltol^0,w,c
  2029   002522  6E0A               	movwf	___fltol@sign1^0,c
  2030   002524  8E04               	bsf	(___fltol@f1+2)^0,7,c
  2031   002526  0EFF               	movlw	255
  2032   002528  1602               	andwf	___fltol@f1^0,f,c
  2033   00252A  0EFF               	movlw	255
  2034   00252C  1603               	andwf	(___fltol@f1+1)^0,f,c
  2035   00252E  0EFF               	movlw	255
  2036   002530  1604               	andwf	(___fltol@f1+2)^0,f,c
  2037   002532  0E00               	movlw	0
  2038   002534  1605               	andwf	(___fltol@f1+3)^0,f,c
  2039   002536  0E96               	movlw	150
  2040   002538  5E0B               	subwf	___fltol@exp1^0,f,c
  2041   00253A  BE0B               	btfsc	___fltol@exp1^0,7,c
  2042   00253C  EFA4  F012         	goto	u4540
  2043   002540  EFA2  F012         	goto	u4541
  2044   002544                     u4541:
  2045   002544  EFBA  F012         	goto	l5488
  2046   002548                     u4540:
  2047   002548  500B               	movf	___fltol@exp1^0,w,c
  2048   00254A  0A80               	xorlw	128
  2049   00254C  0F97               	addlw	151
  2050   00254E  B0D8               	btfsc	status,0,c
  2051   002550  EFAC  F012         	goto	u4551
  2052   002554  EFAE  F012         	goto	u4550
  2053   002558                     u4551:
  2054   002558  EFB0  F012         	goto	l5484
  2055   00255C                     u4550:
  2056   00255C  EF73  F012         	goto	l5464
  2057   002560                     l5484:
  2058   002560  90D8               	bcf	status,0,c
  2059   002562  3205               	rrcf	(___fltol@f1+3)^0,f,c
  2060   002564  3204               	rrcf	(___fltol@f1+2)^0,f,c
  2061   002566  3203               	rrcf	(___fltol@f1+1)^0,f,c
  2062   002568  3202               	rrcf	___fltol@f1^0,f,c
  2063   00256A  3E0B               	incfsz	___fltol@exp1^0,f,c
  2064   00256C  EFB0  F012         	goto	l5484
  2065   002570  EFD2  F012         	goto	l5498
  2066   002574                     l5488:
  2067   002574  0E1F               	movlw	31
  2068   002576  640B               	cpfsgt	___fltol@exp1^0,c
  2069   002578  EFC0  F012         	goto	u4561
  2070   00257C  EFC2  F012         	goto	u4560
  2071   002580                     u4561:
  2072   002580  EFCA  F012         	goto	l5496
  2073   002584                     u4560:
  2074   002584  EF73  F012         	goto	l5464
  2075   002588                     l5494:
  2076   002588  90D8               	bcf	status,0,c
  2077   00258A  3602               	rlcf	___fltol@f1^0,f,c
  2078   00258C  3603               	rlcf	(___fltol@f1+1)^0,f,c
  2079   00258E  3604               	rlcf	(___fltol@f1+2)^0,f,c
  2080   002590  3605               	rlcf	(___fltol@f1+3)^0,f,c
  2081   002592  060B               	decf	___fltol@exp1^0,f,c
  2082   002594                     l5496:
  2083   002594  500B               	movf	___fltol@exp1^0,w,c
  2084   002596  A4D8               	btfss	status,2,c
  2085   002598  EFD0  F012         	goto	u4571
  2086   00259C  EFD2  F012         	goto	u4570
  2087   0025A0                     u4571:
  2088   0025A0  EFC4  F012         	goto	l5494
  2089   0025A4                     u4570:
  2090   0025A4                     l5498:
  2091   0025A4  500A               	movf	___fltol@sign1^0,w,c
  2092   0025A6  B4D8               	btfsc	status,2,c
  2093   0025A8  EFD8  F012         	goto	u4581
  2094   0025AC  EFDA  F012         	goto	u4580
  2095   0025B0                     u4581:
  2096   0025B0  EFE2  F012         	goto	l5502
  2097   0025B4                     u4580:
  2098   0025B4  1E05               	comf	(___fltol@f1+3)^0,f,c
  2099   0025B6  1E04               	comf	(___fltol@f1+2)^0,f,c
  2100   0025B8  1E03               	comf	(___fltol@f1+1)^0,f,c
  2101   0025BA  6C02               	negf	___fltol@f1^0,c
  2102   0025BC  0E00               	movlw	0
  2103   0025BE  2203               	addwfc	(___fltol@f1+1)^0,f,c
  2104   0025C0  2204               	addwfc	(___fltol@f1+2)^0,f,c
  2105   0025C2  2205               	addwfc	(___fltol@f1+3)^0,f,c
  2106   0025C4                     l5502:
  2107   0025C4  C002  F002         	movff	___fltol@f1,?___fltol
  2108   0025C8  C003  F003         	movff	___fltol@f1+1,?___fltol+1
  2109   0025CC  C004  F004         	movff	___fltol@f1+2,?___fltol+2
  2110   0025D0  C005  F005         	movff	___fltol@f1+3,?___fltol+3
  2111   0025D4                     l1815:
  2112   0025D4  0012               	return		;funcret
  2113   0025D6                     __end_of___fltol:
  2114                           	callstack 0
  2115                           
  2116 ;; *************** function ___fldiv *****************
  2117 ;; Defined at:
  2118 ;;		line 11 in file "D:\Embeded-Compiler\pic\sources\c99\common\sprcdiv.c"
  2119 ;; Parameters:    Size  Location     Type
  2120 ;;  b               4   15[COMRAM] long 
  2121 ;;  a               4   19[COMRAM] long 
  2122 ;; Auto vars:     Size  Location     Type
  2123 ;;  grs             4   34[COMRAM] unsigned long 
  2124 ;;  rem             4   27[COMRAM] unsigned long 
  2125 ;;  new_exp         2   32[COMRAM] short 
  2126 ;;  aexp            1   39[COMRAM] unsigned char 
  2127 ;;  bexp            1   38[COMRAM] unsigned char 
  2128 ;;  sign            1   31[COMRAM] unsigned char 
  2129 ;; Return value:  Size  Location     Type
  2130 ;;                  4   15[COMRAM] unsigned char 
  2131 ;; Registers used:
  2132 ;;		wreg, status,2, status,0
  2133 ;; Tracked objects:
  2134 ;;		On entry : 0/0
  2135 ;;		On exit  : 0/0
  2136 ;;		Unchanged: 0/0
  2137 ;; Data sizes:     COMRAM   BANK0   BANK1   BANK2   BANK3   BANK4   BANK5   BANK6   BANK7   BANK8   BANK9  BANK10  BANK1
      +1  BANK12  BANK13  BANK14  BANK15
  2138 ;;      Params:         8       0       0       0       0       0       0       0       0       0       0       0       
      +0       0       0       0       0
  2139 ;;      Locals:        13       0       0       0       0       0       0       0       0       0       0       0       
      +0       0       0       0       0
  2140 ;;      Temps:          4       0       0       0       0       0       0       0       0       0       0       0       
      +0       0       0       0       0
  2141 ;;      Totals:        25       0       0       0       0       0       0       0       0       0       0       0       
      +0       0       0       0       0
  2142 ;;Total ram usage:       25 bytes
  2143 ;; Hardware stack levels used: 1
  2144 ;; Hardware stack levels required when called: 2
  2145 ;; This function calls:
  2146 ;;		Nothing
  2147 ;; This function is called by:
  2148 ;;		_EUSART_BaudRate_Calculations
  2149 ;;		_CCP_PWM_Init
  2150 ;;		_CCP_PWM_Set_Duty
  2151 ;; This function uses a non-reentrant model
  2152 ;;
  2153                           
  2154                           	psect	text6
  2155   001D02                     __ptext6:
  2156                           	callstack 0
  2157   001D02                     ___fldiv:
  2158                           	callstack 25
  2159   001D02  5013               	movf	(___fldiv@b+3)^0,w,c
  2160   001D04  0B80               	andlw	128
  2161   001D06  6E20               	movwf	___fldiv@sign^0,c
  2162   001D08  5013               	movf	(___fldiv@b+3)^0,w,c
  2163   001D0A  2413               	addwf	(___fldiv@b+3)^0,w,c
  2164   001D0C  6E27               	movwf	___fldiv@bexp^0,c
  2165   001D0E  AE12               	btfss	(___fldiv@b+2)^0,7,c
  2166   001D10  EF8C  F00E         	goto	u4291
  2167   001D14  EF8E  F00E         	goto	u4290
  2168   001D18                     u4291:
  2169   001D18  EF8F  F00E         	goto	l5330
  2170   001D1C                     u4290:
  2171   001D1C  8027               	bsf	___fldiv@bexp^0,0,c
  2172   001D1E                     l5330:
  2173   001D1E  5027               	movf	___fldiv@bexp^0,w,c
  2174   001D20  B4D8               	btfsc	status,2,c
  2175   001D22  EF95  F00E         	goto	u4301
  2176   001D26  EF97  F00E         	goto	u4300
  2177   001D2A                     u4301:
  2178   001D2A  EFAC  F00E         	goto	l5340
  2179   001D2E                     u4300:
  2180   001D2E  2827               	incf	___fldiv@bexp^0,w,c
  2181   001D30  A4D8               	btfss	status,2,c
  2182   001D32  EF9D  F00E         	goto	u4311
  2183   001D36  EF9F  F00E         	goto	u4310
  2184   001D3A                     u4311:
  2185   001D3A  EFA7  F00E         	goto	l5336
  2186   001D3E                     u4310:
  2187   001D3E  0E00               	movlw	0
  2188   001D40  6E10               	movwf	___fldiv@b^0,c
  2189   001D42  0E00               	movlw	0
  2190   001D44  6E11               	movwf	(___fldiv@b+1)^0,c
  2191   001D46  0E00               	movlw	0
  2192   001D48  6E12               	movwf	(___fldiv@b+2)^0,c
  2193   001D4A  0E00               	movlw	0
  2194   001D4C  6E13               	movwf	(___fldiv@b+3)^0,c
  2195   001D4E                     l5336:
  2196   001D4E  8E12               	bsf	(___fldiv@b+2)^0,7,c
  2197   001D50  0E00               	movlw	0
  2198   001D52  6E13               	movwf	(___fldiv@b+3)^0,c
  2199   001D54  EFB4  F00E         	goto	l5342
  2200   001D58                     l5340:
  2201   001D58  0E00               	movlw	0
  2202   001D5A  6E10               	movwf	___fldiv@b^0,c
  2203   001D5C  0E00               	movlw	0
  2204   001D5E  6E11               	movwf	(___fldiv@b+1)^0,c
  2205   001D60  0E00               	movlw	0
  2206   001D62  6E12               	movwf	(___fldiv@b+2)^0,c
  2207   001D64  0E00               	movlw	0
  2208   001D66  6E13               	movwf	(___fldiv@b+3)^0,c
  2209   001D68                     l5342:
  2210   001D68  5017               	movf	(___fldiv@a+3)^0,w,c
  2211   001D6A  0B80               	andlw	128
  2212   001D6C  1A20               	xorwf	___fldiv@sign^0,f,c
  2213   001D6E  5017               	movf	(___fldiv@a+3)^0,w,c
  2214   001D70  2417               	addwf	(___fldiv@a+3)^0,w,c
  2215   001D72  6E28               	movwf	___fldiv@aexp^0,c
  2216   001D74  AE16               	btfss	(___fldiv@a+2)^0,7,c
  2217   001D76  EFBF  F00E         	goto	u4321
  2218   001D7A  EFC1  F00E         	goto	u4320
  2219   001D7E                     u4321:
  2220   001D7E  EFC2  F00E         	goto	l5350
  2221   001D82                     u4320:
  2222   001D82  8028               	bsf	___fldiv@aexp^0,0,c
  2223   001D84                     l5350:
  2224   001D84  5028               	movf	___fldiv@aexp^0,w,c
  2225   001D86  B4D8               	btfsc	status,2,c
  2226   001D88  EFC8  F00E         	goto	u4331
  2227   001D8C  EFCA  F00E         	goto	u4330
  2228   001D90                     u4331:
  2229   001D90  EFDF  F00E         	goto	l5360
  2230   001D94                     u4330:
  2231   001D94  2828               	incf	___fldiv@aexp^0,w,c
  2232   001D96  A4D8               	btfss	status,2,c
  2233   001D98  EFD0  F00E         	goto	u4341
  2234   001D9C  EFD2  F00E         	goto	u4340
  2235   001DA0                     u4341:
  2236   001DA0  EFDA  F00E         	goto	l5356
  2237   001DA4                     u4340:
  2238   001DA4  0E00               	movlw	0
  2239   001DA6  6E14               	movwf	___fldiv@a^0,c
  2240   001DA8  0E00               	movlw	0
  2241   001DAA  6E15               	movwf	(___fldiv@a+1)^0,c
  2242   001DAC  0E00               	movlw	0
  2243   001DAE  6E16               	movwf	(___fldiv@a+2)^0,c
  2244   001DB0  0E00               	movlw	0
  2245   001DB2  6E17               	movwf	(___fldiv@a+3)^0,c
  2246   001DB4                     l5356:
  2247   001DB4  8E16               	bsf	(___fldiv@a+2)^0,7,c
  2248   001DB6  0E00               	movlw	0
  2249   001DB8  6E17               	movwf	(___fldiv@a+3)^0,c
  2250   001DBA  EFE7  F00E         	goto	l5362
  2251   001DBE                     l5360:
  2252   001DBE  0E00               	movlw	0
  2253   001DC0  6E14               	movwf	___fldiv@a^0,c
  2254   001DC2  0E00               	movlw	0
  2255   001DC4  6E15               	movwf	(___fldiv@a+1)^0,c
  2256   001DC6  0E00               	movlw	0
  2257   001DC8  6E16               	movwf	(___fldiv@a+2)^0,c
  2258   001DCA  0E00               	movlw	0
  2259   001DCC  6E17               	movwf	(___fldiv@a+3)^0,c
  2260   001DCE                     l5362:
  2261   001DCE  5014               	movf	___fldiv@a^0,w,c
  2262   001DD0  1015               	iorwf	(___fldiv@a+1)^0,w,c
  2263   001DD2  1016               	iorwf	(___fldiv@a+2)^0,w,c
  2264   001DD4  1017               	iorwf	(___fldiv@a+3)^0,w,c
  2265   001DD6  A4D8               	btfss	status,2,c
  2266   001DD8  EFF0  F00E         	goto	u4351
  2267   001DDC  EFF2  F00E         	goto	u4350
  2268   001DE0                     u4351:
  2269   001DE0  EF0A  F00F         	goto	l5374
  2270   001DE4                     u4350:
  2271   001DE4  0E00               	movlw	0
  2272   001DE6  6E10               	movwf	___fldiv@b^0,c
  2273   001DE8  0E00               	movlw	0
  2274   001DEA  6E11               	movwf	(___fldiv@b+1)^0,c
  2275   001DEC  0E00               	movlw	0
  2276   001DEE  6E12               	movwf	(___fldiv@b+2)^0,c
  2277   001DF0  0E00               	movlw	0
  2278   001DF2  6E13               	movwf	(___fldiv@b+3)^0,c
  2279   001DF4  0E80               	movlw	128
  2280   001DF6  1212               	iorwf	(___fldiv@b+2)^0,f,c
  2281   001DF8  0E7F               	movlw	127
  2282   001DFA  1213               	iorwf	(___fldiv@b+3)^0,f,c
  2283   001DFC                     l5368:
  2284   001DFC  5020               	movf	___fldiv@sign^0,w,c
  2285   001DFE  1213               	iorwf	(___fldiv@b+3)^0,f,c
  2286   001E00  C010  F010         	movff	___fldiv@b,?___fldiv
  2287   001E04  C011  F011         	movff	___fldiv@b+1,?___fldiv+1
  2288   001E08  C012  F012         	movff	___fldiv@b+2,?___fldiv+2
  2289   001E0C  C013  F013         	movff	___fldiv@b+3,?___fldiv+3
  2290   001E10  EF4D  F010         	goto	l2100
  2291   001E14                     l5374:
  2292   001E14  5027               	movf	___fldiv@bexp^0,w,c
  2293   001E16  A4D8               	btfss	status,2,c
  2294   001E18  EF10  F00F         	goto	u4361
  2295   001E1C  EF12  F00F         	goto	u4360
  2296   001E20                     u4361:
  2297   001E20  EF1C  F00F         	goto	l5382
  2298   001E24                     u4360:
  2299   001E24  0E00               	movlw	0
  2300   001E26  6E10               	movwf	?___fldiv^0,c
  2301   001E28  0E00               	movlw	0
  2302   001E2A  6E11               	movwf	(?___fldiv+1)^0,c
  2303   001E2C  0E00               	movlw	0
  2304   001E2E  6E12               	movwf	(?___fldiv+2)^0,c
  2305   001E30  0E00               	movlw	0
  2306   001E32  6E13               	movwf	(?___fldiv+3)^0,c
  2307   001E34  EF4D  F010         	goto	l2100
  2308   001E38                     l5382:
  2309   001E38  5028               	movf	___fldiv@aexp^0,w,c
  2310   001E3A  C027  F018         	movff	___fldiv@bexp,??___fldiv
  2311   001E3E  6A19               	clrf	(??___fldiv+1)^0,c
  2312   001E40  5E18               	subwf	??___fldiv^0,f,c
  2313   001E42  0E00               	movlw	0
  2314   001E44  5A19               	subwfb	(??___fldiv+1)^0,f,c
  2315   001E46  0E7F               	movlw	127
  2316   001E48  2418               	addwf	??___fldiv^0,w,c
  2317   001E4A  6E21               	movwf	___fldiv@new_exp^0,c
  2318   001E4C  0E00               	movlw	0
  2319   001E4E  2019               	addwfc	(??___fldiv+1)^0,w,c
  2320   001E50  6E22               	movwf	(___fldiv@new_exp+1)^0,c
  2321   001E52  C010  F01C         	movff	___fldiv@b,___fldiv@rem
  2322   001E56  C011  F01D         	movff	___fldiv@b+1,___fldiv@rem+1
  2323   001E5A  C012  F01E         	movff	___fldiv@b+2,___fldiv@rem+2
  2324   001E5E  C013  F01F         	movff	___fldiv@b+3,___fldiv@rem+3
  2325   001E62  0E00               	movlw	0
  2326   001E64  6E10               	movwf	___fldiv@b^0,c
  2327   001E66  0E00               	movlw	0
  2328   001E68  6E11               	movwf	(___fldiv@b+1)^0,c
  2329   001E6A  0E00               	movlw	0
  2330   001E6C  6E12               	movwf	(___fldiv@b+2)^0,c
  2331   001E6E  0E00               	movlw	0
  2332   001E70  6E13               	movwf	(___fldiv@b+3)^0,c
  2333   001E72  0E00               	movlw	0
  2334   001E74  6E23               	movwf	___fldiv@grs^0,c
  2335   001E76  0E00               	movlw	0
  2336   001E78  6E24               	movwf	(___fldiv@grs+1)^0,c
  2337   001E7A  0E00               	movlw	0
  2338   001E7C  6E25               	movwf	(___fldiv@grs+2)^0,c
  2339   001E7E  0E00               	movlw	0
  2340   001E80  6E26               	movwf	(___fldiv@grs+3)^0,c
  2341   001E82  0E00               	movlw	0
  2342   001E84  6E28               	movwf	___fldiv@aexp^0,c
  2343   001E86  EF7D  F00F         	goto	l2102
  2344   001E8A                     l5392:
  2345   001E8A  5028               	movf	___fldiv@aexp^0,w,c
  2346   001E8C  B4D8               	btfsc	status,2,c
  2347   001E8E  EF4B  F00F         	goto	u4371
  2348   001E92  EF4D  F00F         	goto	u4370
  2349   001E96                     u4371:
  2350   001E96  EF64  F00F         	goto	l5400
  2351   001E9A                     u4370:
  2352   001E9A  90D8               	bcf	status,0,c
  2353   001E9C  361C               	rlcf	___fldiv@rem^0,f,c
  2354   001E9E  361D               	rlcf	(___fldiv@rem+1)^0,f,c
  2355   001EA0  361E               	rlcf	(___fldiv@rem+2)^0,f,c
  2356   001EA2  361F               	rlcf	(___fldiv@rem+3)^0,f,c
  2357   001EA4  90D8               	bcf	status,0,c
  2358   001EA6  3610               	rlcf	___fldiv@b^0,f,c
  2359   001EA8  3611               	rlcf	(___fldiv@b+1)^0,f,c
  2360   001EAA  3612               	rlcf	(___fldiv@b+2)^0,f,c
  2361   001EAC  3613               	rlcf	(___fldiv@b+3)^0,f,c
  2362   001EAE  AE26               	btfss	(___fldiv@grs+3)^0,7,c
  2363   001EB0  EF5C  F00F         	goto	u4381
  2364   001EB4  EF5E  F00F         	goto	u4380
  2365   001EB8                     u4381:
  2366   001EB8  EF5F  F00F         	goto	l2105
  2367   001EBC                     u4380:
  2368   001EBC  8010               	bsf	___fldiv@b^0,0,c
  2369   001EBE                     l2105:
  2370   001EBE  90D8               	bcf	status,0,c
  2371   001EC0  3623               	rlcf	___fldiv@grs^0,f,c
  2372   001EC2  3624               	rlcf	(___fldiv@grs+1)^0,f,c
  2373   001EC4  3625               	rlcf	(___fldiv@grs+2)^0,f,c
  2374   001EC6  3626               	rlcf	(___fldiv@grs+3)^0,f,c
  2375   001EC8                     l5400:
  2376   001EC8  5014               	movf	___fldiv@a^0,w,c
  2377   001ECA  5C1C               	subwf	___fldiv@rem^0,w,c
  2378   001ECC  5015               	movf	(___fldiv@a+1)^0,w,c
  2379   001ECE  581D               	subwfb	(___fldiv@rem+1)^0,w,c
  2380   001ED0  5016               	movf	(___fldiv@a+2)^0,w,c
  2381   001ED2  581E               	subwfb	(___fldiv@rem+2)^0,w,c
  2382   001ED4  5017               	movf	(___fldiv@a+3)^0,w,c
  2383   001ED6  581F               	subwfb	(___fldiv@rem+3)^0,w,c
  2384   001ED8  A0D8               	btfss	status,0,c
  2385   001EDA  EF71  F00F         	goto	u4391
  2386   001EDE  EF73  F00F         	goto	u4390
  2387   001EE2                     u4391:
  2388   001EE2  EF7C  F00F         	goto	l5406
  2389   001EE6                     u4390:
  2390   001EE6  8C26               	bsf	(___fldiv@grs+3)^0,6,c
  2391   001EE8  5014               	movf	___fldiv@a^0,w,c
  2392   001EEA  5E1C               	subwf	___fldiv@rem^0,f,c
  2393   001EEC  5015               	movf	(___fldiv@a+1)^0,w,c
  2394   001EEE  5A1D               	subwfb	(___fldiv@rem+1)^0,f,c
  2395   001EF0  5016               	movf	(___fldiv@a+2)^0,w,c
  2396   001EF2  5A1E               	subwfb	(___fldiv@rem+2)^0,f,c
  2397   001EF4  5017               	movf	(___fldiv@a+3)^0,w,c
  2398   001EF6  5A1F               	subwfb	(___fldiv@rem+3)^0,f,c
  2399   001EF8                     l5406:
  2400   001EF8  2A28               	incf	___fldiv@aexp^0,f,c
  2401   001EFA                     l2102:
  2402   001EFA  0E19               	movlw	25
  2403   001EFC  6428               	cpfsgt	___fldiv@aexp^0,c
  2404   001EFE  EF83  F00F         	goto	u4401
  2405   001F02  EF85  F00F         	goto	u4400
  2406   001F06                     u4401:
  2407   001F06  EF45  F00F         	goto	l5392
  2408   001F0A                     u4400:
  2409   001F0A  501C               	movf	___fldiv@rem^0,w,c
  2410   001F0C  101D               	iorwf	(___fldiv@rem+1)^0,w,c
  2411   001F0E  101E               	iorwf	(___fldiv@rem+2)^0,w,c
  2412   001F10  101F               	iorwf	(___fldiv@rem+3)^0,w,c
  2413   001F12  B4D8               	btfsc	status,2,c
  2414   001F14  EF8E  F00F         	goto	u4411
  2415   001F18  EF90  F00F         	goto	u4410
  2416   001F1C                     u4411:
  2417   001F1C  EFA8  F00F         	goto	l5418
  2418   001F20                     u4410:
  2419   001F20  8023               	bsf	___fldiv@grs^0,0,c
  2420   001F22  EFA8  F00F         	goto	l5418
  2421   001F26                     l5412:
  2422   001F26  90D8               	bcf	status,0,c
  2423   001F28  3610               	rlcf	___fldiv@b^0,f,c
  2424   001F2A  3611               	rlcf	(___fldiv@b+1)^0,f,c
  2425   001F2C  3612               	rlcf	(___fldiv@b+2)^0,f,c
  2426   001F2E  3613               	rlcf	(___fldiv@b+3)^0,f,c
  2427   001F30  AE26               	btfss	(___fldiv@grs+3)^0,7,c
  2428   001F32  EF9D  F00F         	goto	u4421
  2429   001F36  EF9F  F00F         	goto	u4420
  2430   001F3A                     u4421:
  2431   001F3A  EFA0  F00F         	goto	l2111
  2432   001F3E                     u4420:
  2433   001F3E  8010               	bsf	___fldiv@b^0,0,c
  2434   001F40                     l2111:
  2435   001F40  90D8               	bcf	status,0,c
  2436   001F42  3623               	rlcf	___fldiv@grs^0,f,c
  2437   001F44  3624               	rlcf	(___fldiv@grs+1)^0,f,c
  2438   001F46  3625               	rlcf	(___fldiv@grs+2)^0,f,c
  2439   001F48  3626               	rlcf	(___fldiv@grs+3)^0,f,c
  2440   001F4A  0621               	decf	___fldiv@new_exp^0,f,c
  2441   001F4C  A0D8               	btfss	status,0,c
  2442   001F4E  0622               	decf	(___fldiv@new_exp+1)^0,f,c
  2443   001F50                     l5418:
  2444   001F50  AE12               	btfss	(___fldiv@b+2)^0,7,c
  2445   001F52  EFAD  F00F         	goto	u4431
  2446   001F56  EFAF  F00F         	goto	u4430
  2447   001F5A                     u4431:
  2448   001F5A  EF93  F00F         	goto	l5412
  2449   001F5E                     u4430:
  2450   001F5E  0E00               	movlw	0
  2451   001F60  6E28               	movwf	___fldiv@aexp^0,c
  2452   001F62  AE26               	btfss	(___fldiv@grs+3)^0,7,c
  2453   001F64  EFB6  F00F         	goto	u4441
  2454   001F68  EFB8  F00F         	goto	u4440
  2455   001F6C                     u4441:
  2456   001F6C  EFDC  F00F         	goto	l2113
  2457   001F70                     u4440:
  2458   001F70  0EFF               	movlw	255
  2459   001F72  1423               	andwf	___fldiv@grs^0,w,c
  2460   001F74  6E18               	movwf	??___fldiv^0,c
  2461   001F76  0EFF               	movlw	255
  2462   001F78  1424               	andwf	(___fldiv@grs+1)^0,w,c
  2463   001F7A  6E19               	movwf	(??___fldiv+1)^0,c
  2464   001F7C  0EFF               	movlw	255
  2465   001F7E  1425               	andwf	(___fldiv@grs+2)^0,w,c
  2466   001F80  6E1A               	movwf	(??___fldiv+2)^0,c
  2467   001F82  0E7F               	movlw	127
  2468   001F84  1426               	andwf	(___fldiv@grs+3)^0,w,c
  2469   001F86  6E1B               	movwf	(??___fldiv+3)^0,c
  2470   001F88  5018               	movf	??___fldiv^0,w,c
  2471   001F8A  1019               	iorwf	(??___fldiv+1)^0,w,c
  2472   001F8C  101A               	iorwf	(??___fldiv+2)^0,w,c
  2473   001F8E  101B               	iorwf	(??___fldiv+3)^0,w,c
  2474   001F90  B4D8               	btfsc	status,2,c
  2475   001F92  EFCD  F00F         	goto	u4451
  2476   001F96  EFCF  F00F         	goto	u4450
  2477   001F9A                     u4451:
  2478   001F9A  EFD3  F00F         	goto	l2114
  2479   001F9E                     u4450:
  2480   001F9E                     l5426:
  2481   001F9E  0E01               	movlw	1
  2482   001FA0  6E28               	movwf	___fldiv@aexp^0,c
  2483   001FA2  EFDC  F00F         	goto	l2113
  2484   001FA6                     l2114:
  2485   001FA6  A010               	btfss	___fldiv@b^0,0,c
  2486   001FA8  EFD8  F00F         	goto	u4461
  2487   001FAC  EFDA  F00F         	goto	u4460
  2488   001FB0                     u4461:
  2489   001FB0  EFDC  F00F         	goto	l2113
  2490   001FB4                     u4460:
  2491   001FB4  EFCF  F00F         	goto	l5426
  2492   001FB8                     l2113:
  2493   001FB8  5028               	movf	___fldiv@aexp^0,w,c
  2494   001FBA  B4D8               	btfsc	status,2,c
  2495   001FBC  EFE2  F00F         	goto	u4471
  2496   001FC0  EFE4  F00F         	goto	u4470
  2497   001FC4                     u4471:
  2498   001FC4  EF08  F010         	goto	l5438
  2499   001FC8                     u4470:
  2500   001FC8  0E01               	movlw	1
  2501   001FCA  2610               	addwf	___fldiv@b^0,f,c
  2502   001FCC  0E00               	movlw	0
  2503   001FCE  2211               	addwfc	(___fldiv@b+1)^0,f,c
  2504   001FD0  2212               	addwfc	(___fldiv@b+2)^0,f,c
  2505   001FD2  2213               	addwfc	(___fldiv@b+3)^0,f,c
  2506   001FD4  A013               	btfss	(___fldiv@b+3)^0,0,c
  2507   001FD6  EFEF  F00F         	goto	u4481
  2508   001FDA  EFF1  F00F         	goto	u4480
  2509   001FDE                     u4481:
  2510   001FDE  EF08  F010         	goto	l5438
  2511   001FE2                     u4480:
  2512   001FE2  C010  F018         	movff	___fldiv@b,??___fldiv
  2513   001FE6  C011  F019         	movff	___fldiv@b+1,??___fldiv+1
  2514   001FEA  C012  F01A         	movff	___fldiv@b+2,??___fldiv+2
  2515   001FEE  C013  F01B         	movff	___fldiv@b+3,??___fldiv+3
  2516   001FF2  341B               	rlcf	(??___fldiv+3)^0,w,c
  2517   001FF4  321B               	rrcf	(??___fldiv+3)^0,f,c
  2518   001FF6  321A               	rrcf	(??___fldiv+2)^0,f,c
  2519   001FF8  3219               	rrcf	(??___fldiv+1)^0,f,c
  2520   001FFA  3218               	rrcf	??___fldiv^0,f,c
  2521   001FFC  C018  F010         	movff	??___fldiv,___fldiv@b
  2522   002000  C019  F011         	movff	??___fldiv+1,___fldiv@b+1
  2523   002004  C01A  F012         	movff	??___fldiv+2,___fldiv@b+2
  2524   002008  C01B  F013         	movff	??___fldiv+3,___fldiv@b+3
  2525   00200C  4A21               	infsnz	___fldiv@new_exp^0,f,c
  2526   00200E  2A22               	incf	(___fldiv@new_exp+1)^0,f,c
  2527   002010                     l5438:
  2528   002010  BE22               	btfsc	(___fldiv@new_exp+1)^0,7,c
  2529   002012  EF13  F010         	goto	u4491
  2530   002016  5022               	movf	(___fldiv@new_exp+1)^0,w,c
  2531   002018  E108               	bnz	u4490
  2532   00201A  2821               	incf	___fldiv@new_exp^0,w,c
  2533   00201C  A0D8               	btfss	status,0,c
  2534   00201E  EF13  F010         	goto	u4491
  2535   002022  EF15  F010         	goto	u4490
  2536   002026                     u4491:
  2537   002026  EF20  F010         	goto	l5442
  2538   00202A                     u4490:
  2539   00202A  0E00               	movlw	0
  2540   00202C  6E22               	movwf	(___fldiv@new_exp+1)^0,c
  2541   00202E  6821               	setf	___fldiv@new_exp^0,c
  2542   002030  0E00               	movlw	0
  2543   002032  6E10               	movwf	___fldiv@b^0,c
  2544   002034  0E00               	movlw	0
  2545   002036  6E11               	movwf	(___fldiv@b+1)^0,c
  2546   002038  0E00               	movlw	0
  2547   00203A  6E12               	movwf	(___fldiv@b+2)^0,c
  2548   00203C  0E00               	movlw	0
  2549   00203E  6E13               	movwf	(___fldiv@b+3)^0,c
  2550   002040                     l5442:
  2551   002040  BE22               	btfsc	(___fldiv@new_exp+1)^0,7,c
  2552   002042  EF2D  F010         	goto	u4500
  2553   002046  5022               	movf	(___fldiv@new_exp+1)^0,w,c
  2554   002048  E106               	bnz	u4501
  2555   00204A  0421               	decf	___fldiv@new_exp^0,w,c
  2556   00204C  B0D8               	btfsc	status,0,c
  2557   00204E  EF2B  F010         	goto	u4501
  2558   002052  EF2D  F010         	goto	u4500
  2559   002056                     u4501:
  2560   002056  EF3B  F010         	goto	l5446
  2561   00205A                     u4500:
  2562   00205A  0E00               	movlw	0
  2563   00205C  6E22               	movwf	(___fldiv@new_exp+1)^0,c
  2564   00205E  0E00               	movlw	0
  2565   002060  6E21               	movwf	___fldiv@new_exp^0,c
  2566   002062  0E00               	movlw	0
  2567   002064  6E10               	movwf	___fldiv@b^0,c
  2568   002066  0E00               	movlw	0
  2569   002068  6E11               	movwf	(___fldiv@b+1)^0,c
  2570   00206A  0E00               	movlw	0
  2571   00206C  6E12               	movwf	(___fldiv@b+2)^0,c
  2572   00206E  0E00               	movlw	0
  2573   002070  6E13               	movwf	(___fldiv@b+3)^0,c
  2574   002072  0E00               	movlw	0
  2575   002074  6E20               	movwf	___fldiv@sign^0,c
  2576   002076                     l5446:
  2577   002076  C021  F027         	movff	___fldiv@new_exp,___fldiv@bexp
  2578   00207A  A027               	btfss	___fldiv@bexp^0,0,c
  2579   00207C  EF42  F010         	goto	u4511
  2580   002080  EF44  F010         	goto	u4510
  2581   002084                     u4511:
  2582   002084  EF47  F010         	goto	l5452
  2583   002088                     u4510:
  2584   002088  8E12               	bsf	(___fldiv@b+2)^0,7,c
  2585   00208A  EF48  F010         	goto	l5454
  2586   00208E                     l5452:
  2587   00208E  9E12               	bcf	(___fldiv@b+2)^0,7,c
  2588   002090                     l5454:
  2589   002090  90D8               	bcf	status,0,c
  2590   002092  3027               	rrcf	___fldiv@bexp^0,w,c
  2591   002094  6E13               	movwf	(___fldiv@b+3)^0,c
  2592   002096  EFFE  F00E         	goto	l5368
  2593   00209A                     l2100:
  2594   00209A  0012               	return		;funcret
  2595   00209C                     __end_of___fldiv:
  2596                           	callstack 0
  2597                           
  2598 ;; *************** function ___fladd *****************
  2599 ;; Defined at:
  2600 ;;		line 10 in file "D:\Embeded-Compiler\pic\sources\c99\common\sprcadd.c"
  2601 ;; Parameters:    Size  Location     Type
  2602 ;;  b               4   40[COMRAM] unsigned char 
  2603 ;;  a               4   44[COMRAM] unsigned char 
  2604 ;; Auto vars:     Size  Location     Type
  2605 ;;  grs             1   55[COMRAM] unsigned char 
  2606 ;;  bexp            1   54[COMRAM] unsigned char 
  2607 ;;  aexp            1   53[COMRAM] unsigned char 
  2608 ;;  signs           1   52[COMRAM] unsigned char 
  2609 ;; Return value:  Size  Location     Type
  2610 ;;                  4   40[COMRAM] unsigned char 
  2611 ;; Registers used:
  2612 ;;		wreg, status,2, status,0
  2613 ;; Tracked objects:
  2614 ;;		On entry : 0/0
  2615 ;;		On exit  : 0/0
  2616 ;;		Unchanged: 0/0
  2617 ;; Data sizes:     COMRAM   BANK0   BANK1   BANK2   BANK3   BANK4   BANK5   BANK6   BANK7   BANK8   BANK9  BANK10  BANK1
      +1  BANK12  BANK13  BANK14  BANK15
  2618 ;;      Params:         8       0       0       0       0       0       0       0       0       0       0       0       
      +0       0       0       0       0
  2619 ;;      Locals:         4       0       0       0       0       0       0       0       0       0       0       0       
      +0       0       0       0       0
  2620 ;;      Temps:          4       0       0       0       0       0       0       0       0       0       0       0       
      +0       0       0       0       0
  2621 ;;      Totals:        16       0       0       0       0       0       0       0       0       0       0       0       
      +0       0       0       0       0
  2622 ;;Total ram usage:       16 bytes
  2623 ;; Hardware stack levels used: 1
  2624 ;; Hardware stack levels required when called: 2
  2625 ;; This function calls:
  2626 ;;		Nothing
  2627 ;; This function is called by:
  2628 ;;		_EUSART_BaudRate_Calculations
  2629 ;;		_CCP_PWM_Init
  2630 ;; This function uses a non-reentrant model
  2631 ;;
  2632                           
  2633                           	psect	text7
  2634   00101A                     __ptext7:
  2635                           	callstack 0
  2636   00101A                     ___fladd:
  2637                           	callstack 25
  2638   00101A  502C               	movf	(___fladd@b+3)^0,w,c
  2639   00101C  0B80               	andlw	128
  2640   00101E  6E35               	movwf	___fladd@signs^0,c
  2641   001020  502C               	movf	(___fladd@b+3)^0,w,c
  2642   001022  242C               	addwf	(___fladd@b+3)^0,w,c
  2643   001024  6E37               	movwf	___fladd@bexp^0,c
  2644   001026  AE2B               	btfss	(___fladd@b+2)^0,7,c
  2645   001028  EF18  F008         	goto	u3901
  2646   00102C  EF1A  F008         	goto	u3900
  2647   001030                     u3901:
  2648   001030  EF1B  F008         	goto	l5128
  2649   001034                     u3900:
  2650   001034  8037               	bsf	___fladd@bexp^0,0,c
  2651   001036                     l5128:
  2652   001036  5037               	movf	___fladd@bexp^0,w,c
  2653   001038  B4D8               	btfsc	status,2,c
  2654   00103A  EF21  F008         	goto	u3911
  2655   00103E  EF23  F008         	goto	u3910
  2656   001042                     u3911:
  2657   001042  EF38  F008         	goto	l5138
  2658   001046                     u3910:
  2659   001046  2837               	incf	___fladd@bexp^0,w,c
  2660   001048  A4D8               	btfss	status,2,c
  2661   00104A  EF29  F008         	goto	u3921
  2662   00104E  EF2B  F008         	goto	u3920
  2663   001052                     u3921:
  2664   001052  EF33  F008         	goto	l5134
  2665   001056                     u3920:
  2666   001056  0E00               	movlw	0
  2667   001058  6E29               	movwf	___fladd@b^0,c
  2668   00105A  0E00               	movlw	0
  2669   00105C  6E2A               	movwf	(___fladd@b+1)^0,c
  2670   00105E  0E00               	movlw	0
  2671   001060  6E2B               	movwf	(___fladd@b+2)^0,c
  2672   001062  0E00               	movlw	0
  2673   001064  6E2C               	movwf	(___fladd@b+3)^0,c
  2674   001066                     l5134:
  2675   001066  8E2B               	bsf	(___fladd@b+2)^0,7,c
  2676   001068  0E00               	movlw	0
  2677   00106A  6E2C               	movwf	(___fladd@b+3)^0,c
  2678   00106C  EF40  F008         	goto	l5140
  2679   001070                     l5138:
  2680   001070  0E00               	movlw	0
  2681   001072  6E29               	movwf	___fladd@b^0,c
  2682   001074  0E00               	movlw	0
  2683   001076  6E2A               	movwf	(___fladd@b+1)^0,c
  2684   001078  0E00               	movlw	0
  2685   00107A  6E2B               	movwf	(___fladd@b+2)^0,c
  2686   00107C  0E00               	movlw	0
  2687   00107E  6E2C               	movwf	(___fladd@b+3)^0,c
  2688   001080                     l5140:
  2689   001080  5030               	movf	(___fladd@a+3)^0,w,c
  2690   001082  0B80               	andlw	128
  2691   001084  6E36               	movwf	___fladd@aexp^0,c
  2692   001086  5035               	movf	___fladd@signs^0,w,c
  2693   001088  1836               	xorwf	___fladd@aexp^0,w,c
  2694   00108A  B4D8               	btfsc	status,2,c
  2695   00108C  EF4A  F008         	goto	u3931
  2696   001090  EF4C  F008         	goto	u3930
  2697   001094                     u3931:
  2698   001094  EF4D  F008         	goto	l5146
  2699   001098                     u3930:
  2700   001098  8C35               	bsf	___fladd@signs^0,6,c
  2701   00109A                     l5146:
  2702   00109A  5030               	movf	(___fladd@a+3)^0,w,c
  2703   00109C  2430               	addwf	(___fladd@a+3)^0,w,c
  2704   00109E  6E36               	movwf	___fladd@aexp^0,c
  2705   0010A0  AE2F               	btfss	(___fladd@a+2)^0,7,c
  2706   0010A2  EF55  F008         	goto	u3941
  2707   0010A6  EF57  F008         	goto	u3940
  2708   0010AA                     u3941:
  2709   0010AA  EF58  F008         	goto	l5152
  2710   0010AE                     u3940:
  2711   0010AE  8036               	bsf	___fladd@aexp^0,0,c
  2712   0010B0                     l5152:
  2713   0010B0  5036               	movf	___fladd@aexp^0,w,c
  2714   0010B2  B4D8               	btfsc	status,2,c
  2715   0010B4  EF5E  F008         	goto	u3951
  2716   0010B8  EF60  F008         	goto	u3950
  2717   0010BC                     u3951:
  2718   0010BC  EF75  F008         	goto	l5162
  2719   0010C0                     u3950:
  2720   0010C0  2836               	incf	___fladd@aexp^0,w,c
  2721   0010C2  A4D8               	btfss	status,2,c
  2722   0010C4  EF66  F008         	goto	u3961
  2723   0010C8  EF68  F008         	goto	u3960
  2724   0010CC                     u3961:
  2725   0010CC  EF70  F008         	goto	l5158
  2726   0010D0                     u3960:
  2727   0010D0  0E00               	movlw	0
  2728   0010D2  6E2D               	movwf	___fladd@a^0,c
  2729   0010D4  0E00               	movlw	0
  2730   0010D6  6E2E               	movwf	(___fladd@a+1)^0,c
  2731   0010D8  0E00               	movlw	0
  2732   0010DA  6E2F               	movwf	(___fladd@a+2)^0,c
  2733   0010DC  0E00               	movlw	0
  2734   0010DE  6E30               	movwf	(___fladd@a+3)^0,c
  2735   0010E0                     l5158:
  2736   0010E0  8E2F               	bsf	(___fladd@a+2)^0,7,c
  2737   0010E2  0E00               	movlw	0
  2738   0010E4  6E30               	movwf	(___fladd@a+3)^0,c
  2739   0010E6  EF7D  F008         	goto	l5164
  2740   0010EA                     l5162:
  2741   0010EA  0E00               	movlw	0
  2742   0010EC  6E2D               	movwf	___fladd@a^0,c
  2743   0010EE  0E00               	movlw	0
  2744   0010F0  6E2E               	movwf	(___fladd@a+1)^0,c
  2745   0010F2  0E00               	movlw	0
  2746   0010F4  6E2F               	movwf	(___fladd@a+2)^0,c
  2747   0010F6  0E00               	movlw	0
  2748   0010F8  6E30               	movwf	(___fladd@a+3)^0,c
  2749   0010FA                     l5164:
  2750   0010FA  5037               	movf	___fladd@bexp^0,w,c
  2751   0010FC  5C36               	subwf	___fladd@aexp^0,w,c
  2752   0010FE  B0D8               	btfsc	status,0,c
  2753   001100  EF84  F008         	goto	u3971
  2754   001104  EF86  F008         	goto	u3970
  2755   001108                     u3971:
  2756   001108  EFAD  F008         	goto	l5200
  2757   00110C                     u3970:
  2758   00110C  AC35               	btfss	___fladd@signs^0,6,c
  2759   00110E  EF8B  F008         	goto	u3981
  2760   001112  EF8D  F008         	goto	u3980
  2761   001116                     u3981:
  2762   001116  EF8F  F008         	goto	l5170
  2763   00111A                     u3980:
  2764   00111A  0E80               	movlw	128
  2765   00111C  1A35               	xorwf	___fladd@signs^0,f,c
  2766   00111E                     l5170:
  2767   00111E  C037  F038         	movff	___fladd@bexp,___fladd@grs
  2768   001122  C036  F037         	movff	___fladd@aexp,___fladd@bexp
  2769   001126  C038  F036         	movff	___fladd@grs,___fladd@aexp
  2770   00112A  C029  F038         	movff	___fladd@b,___fladd@grs
  2771   00112E  C02D  F029         	movff	___fladd@a,___fladd@b
  2772   001132  C038  F02D         	movff	___fladd@grs,___fladd@a
  2773   001136  C02A  F038         	movff	___fladd@b+1,___fladd@grs
  2774   00113A  C02E  F02A         	movff	___fladd@a+1,___fladd@b+1
  2775   00113E  C038  F02E         	movff	___fladd@grs,___fladd@a+1
  2776   001142  C02B  F038         	movff	___fladd@b+2,___fladd@grs
  2777   001146  C02F  F02B         	movff	___fladd@a+2,___fladd@b+2
  2778   00114A  C038  F02F         	movff	___fladd@grs,___fladd@a+2
  2779   00114E  C02C  F038         	movff	___fladd@b+3,___fladd@grs
  2780   001152  C030  F02C         	movff	___fladd@a+3,___fladd@b+3
  2781   001156  C038  F030         	movff	___fladd@grs,___fladd@a+3
  2782   00115A                     l5200:
  2783   00115A  0E00               	movlw	0
  2784   00115C  6E38               	movwf	___fladd@grs^0,c
  2785   00115E  5037               	movf	___fladd@bexp^0,w,c
  2786   001160  C036  F031         	movff	___fladd@aexp,??___fladd
  2787   001164  6A32               	clrf	(??___fladd+1)^0,c
  2788   001166  5E31               	subwf	??___fladd^0,f,c
  2789   001168  0E00               	movlw	0
  2790   00116A  5A32               	subwfb	(??___fladd+1)^0,f,c
  2791   00116C  BE32               	btfsc	(??___fladd+1)^0,7,c
  2792   00116E  EFC2  F008         	goto	u3991
  2793   001172  5032               	movf	(??___fladd+1)^0,w,c
  2794   001174  E109               	bnz	u3990
  2795   001176  0E1A               	movlw	26
  2796   001178  5C31               	subwf	??___fladd^0,w,c
  2797   00117A  A0D8               	btfss	status,0,c
  2798   00117C  EFC2  F008         	goto	u3991
  2799   001180  EFC4  F008         	goto	u3990
  2800   001184                     u3991:
  2801   001184  EFFB  F008         	goto	l2047
  2802   001188                     u3990:
  2803   001188  5029               	movf	___fladd@b^0,w,c
  2804   00118A  102A               	iorwf	(___fladd@b+1)^0,w,c
  2805   00118C  102B               	iorwf	(___fladd@b+2)^0,w,c
  2806   00118E  102C               	iorwf	(___fladd@b+3)^0,w,c
  2807   001190  A4D8               	btfss	status,2,c
  2808   001192  EFCD  F008         	goto	u4001
  2809   001196  EFD0  F008         	goto	u4000
  2810   00119A                     u4001:
  2811   00119A  0E01               	movlw	1
  2812   00119C  EFD1  F008         	goto	u4010
  2813   0011A0                     u4000:
  2814   0011A0  0E00               	movlw	0
  2815   0011A2                     u4010:
  2816   0011A2  6E38               	movwf	___fladd@grs^0,c
  2817   0011A4  0E00               	movlw	0
  2818   0011A6  6E29               	movwf	___fladd@b^0,c
  2819   0011A8  0E00               	movlw	0
  2820   0011AA  6E2A               	movwf	(___fladd@b+1)^0,c
  2821   0011AC  0E00               	movlw	0
  2822   0011AE  6E2B               	movwf	(___fladd@b+2)^0,c
  2823   0011B0  0E00               	movlw	0
  2824   0011B2  6E2C               	movwf	(___fladd@b+3)^0,c
  2825   0011B4  C036  F037         	movff	___fladd@aexp,___fladd@bexp
  2826   0011B8  EF04  F009         	goto	l2046
  2827   0011BC                     l2048:
  2828   0011BC  A038               	btfss	___fladd@grs^0,0,c
  2829   0011BE  EFE3  F008         	goto	u4021
  2830   0011C2  EFE5  F008         	goto	u4020
  2831   0011C6                     u4021:
  2832   0011C6  EFEB  F008         	goto	l5212
  2833   0011CA                     u4020:
  2834   0011CA  90D8               	bcf	status,0,c
  2835   0011CC  3038               	rrcf	___fladd@grs^0,w,c
  2836   0011CE  0901               	iorlw	1
  2837   0011D0  6E38               	movwf	___fladd@grs^0,c
  2838   0011D2  EFED  F008         	goto	l5214
  2839   0011D6                     l5212:
  2840   0011D6  90D8               	bcf	status,0,c
  2841   0011D8  3238               	rrcf	___fladd@grs^0,f,c
  2842   0011DA                     l5214:
  2843   0011DA  A029               	btfss	___fladd@b^0,0,c
  2844   0011DC  EFF2  F008         	goto	u4031
  2845   0011E0  EFF4  F008         	goto	u4030
  2846   0011E4                     u4031:
  2847   0011E4  EFF5  F008         	goto	l5218
  2848   0011E8                     u4030:
  2849   0011E8  8E38               	bsf	___fladd@grs^0,7,c
  2850   0011EA                     l5218:
  2851   0011EA  342C               	rlcf	(___fladd@b+3)^0,w,c
  2852   0011EC  322C               	rrcf	(___fladd@b+3)^0,f,c
  2853   0011EE  322B               	rrcf	(___fladd@b+2)^0,f,c
  2854   0011F0  322A               	rrcf	(___fladd@b+1)^0,f,c
  2855   0011F2  3229               	rrcf	___fladd@b^0,f,c
  2856   0011F4  2A37               	incf	___fladd@bexp^0,f,c
  2857   0011F6                     l2047:
  2858   0011F6  5036               	movf	___fladd@aexp^0,w,c
  2859   0011F8  5C37               	subwf	___fladd@bexp^0,w,c
  2860   0011FA  A0D8               	btfss	status,0,c
  2861   0011FC  EF02  F009         	goto	u4041
  2862   001200  EF04  F009         	goto	u4040
  2863   001204                     u4041:
  2864   001204  EFDE  F008         	goto	l2048
  2865   001208                     u4040:
  2866   001208                     l2046:
  2867   001208  BC35               	btfsc	___fladd@signs^0,6,c
  2868   00120A  EF09  F009         	goto	u4051
  2869   00120E  EF0B  F009         	goto	u4050
  2870   001212                     u4051:
  2871   001212  EF4B  F009         	goto	l5246
  2872   001216                     u4050:
  2873   001216  5037               	movf	___fladd@bexp^0,w,c
  2874   001218  A4D8               	btfss	status,2,c
  2875   00121A  EF11  F009         	goto	u4061
  2876   00121E  EF13  F009         	goto	u4060
  2877   001222                     u4061:
  2878   001222  EF1D  F009         	goto	l5228
  2879   001226                     u4060:
  2880   001226  0E00               	movlw	0
  2881   001228  6E29               	movwf	?___fladd^0,c
  2882   00122A  0E00               	movlw	0
  2883   00122C  6E2A               	movwf	(?___fladd+1)^0,c
  2884   00122E  0E00               	movlw	0
  2885   001230  6E2B               	movwf	(?___fladd+2)^0,c
  2886   001232  0E00               	movlw	0
  2887   001234  6E2C               	movwf	(?___fladd+3)^0,c
  2888   001236  EF6C  F00A         	goto	l2055
  2889   00123A                     l5228:
  2890   00123A  502D               	movf	___fladd@a^0,w,c
  2891   00123C  2629               	addwf	___fladd@b^0,f,c
  2892   00123E  502E               	movf	(___fladd@a+1)^0,w,c
  2893   001240  222A               	addwfc	(___fladd@b+1)^0,f,c
  2894   001242  502F               	movf	(___fladd@a+2)^0,w,c
  2895   001244  222B               	addwfc	(___fladd@b+2)^0,f,c
  2896   001246  5030               	movf	(___fladd@a+3)^0,w,c
  2897   001248  222C               	addwfc	(___fladd@b+3)^0,f,c
  2898   00124A  A02C               	btfss	(___fladd@b+3)^0,0,c
  2899   00124C  EF2A  F009         	goto	u4071
  2900   001250  EF2C  F009         	goto	u4070
  2901   001254                     u4071:
  2902   001254  EFD8  F009         	goto	l5282
  2903   001258                     u4070:
  2904   001258  A038               	btfss	___fladd@grs^0,0,c
  2905   00125A  EF31  F009         	goto	u4081
  2906   00125E  EF33  F009         	goto	u4080
  2907   001262                     u4081:
  2908   001262  EF39  F009         	goto	l5236
  2909   001266                     u4080:
  2910   001266  90D8               	bcf	status,0,c
  2911   001268  3038               	rrcf	___fladd@grs^0,w,c
  2912   00126A  0901               	iorlw	1
  2913   00126C  6E38               	movwf	___fladd@grs^0,c
  2914   00126E  EF3B  F009         	goto	l5238
  2915   001272                     l5236:
  2916   001272  90D8               	bcf	status,0,c
  2917   001274  3238               	rrcf	___fladd@grs^0,f,c
  2918   001276                     l5238:
  2919   001276  A029               	btfss	___fladd@b^0,0,c
  2920   001278  EF40  F009         	goto	u4091
  2921   00127C  EF42  F009         	goto	u4090
  2922   001280                     u4091:
  2923   001280  EF43  F009         	goto	l5242
  2924   001284                     u4090:
  2925   001284  8E38               	bsf	___fladd@grs^0,7,c
  2926   001286                     l5242:
  2927   001286  342C               	rlcf	(___fladd@b+3)^0,w,c
  2928   001288  322C               	rrcf	(___fladd@b+3)^0,f,c
  2929   00128A  322B               	rrcf	(___fladd@b+2)^0,f,c
  2930   00128C  322A               	rrcf	(___fladd@b+1)^0,f,c
  2931   00128E  3229               	rrcf	___fladd@b^0,f,c
  2932   001290  2A37               	incf	___fladd@bexp^0,f,c
  2933   001292  EFD8  F009         	goto	l5282
  2934   001296                     l5246:
  2935   001296  502D               	movf	___fladd@a^0,w,c
  2936   001298  5C29               	subwf	___fladd@b^0,w,c
  2937   00129A  502E               	movf	(___fladd@a+1)^0,w,c
  2938   00129C  582A               	subwfb	(___fladd@b+1)^0,w,c
  2939   00129E  502F               	movf	(___fladd@a+2)^0,w,c
  2940   0012A0  582B               	subwfb	(___fladd@b+2)^0,w,c
  2941   0012A2  502C               	movf	(___fladd@b+3)^0,w,c
  2942   0012A4  0A80               	xorlw	128
  2943   0012A6  6E31               	movwf	??___fladd^0,c
  2944   0012A8  5030               	movf	(___fladd@a+3)^0,w,c
  2945   0012AA  0A80               	xorlw	128
  2946   0012AC  5831               	subwfb	??___fladd^0,w,c
  2947   0012AE  B0D8               	btfsc	status,0,c
  2948   0012B0  EF5C  F009         	goto	u4101
  2949   0012B4  EF5E  F009         	goto	u4100
  2950   0012B8                     u4101:
  2951   0012B8  EF89  F009         	goto	l5256
  2952   0012BC                     u4100:
  2953   0012BC  5029               	movf	___fladd@b^0,w,c
  2954   0012BE  5C2D               	subwf	___fladd@a^0,w,c
  2955   0012C0  6E31               	movwf	??___fladd^0,c
  2956   0012C2  502A               	movf	(___fladd@b+1)^0,w,c
  2957   0012C4  582E               	subwfb	(___fladd@a+1)^0,w,c
  2958   0012C6  6E32               	movwf	(??___fladd+1)^0,c
  2959   0012C8  502B               	movf	(___fladd@b+2)^0,w,c
  2960   0012CA  582F               	subwfb	(___fladd@a+2)^0,w,c
  2961   0012CC  6E33               	movwf	(??___fladd+2)^0,c
  2962   0012CE  502C               	movf	(___fladd@b+3)^0,w,c
  2963   0012D0  5830               	subwfb	(___fladd@a+3)^0,w,c
  2964   0012D2  6E34               	movwf	(??___fladd+3)^0,c
  2965   0012D4  0EFF               	movlw	255
  2966   0012D6  2431               	addwf	??___fladd^0,w,c
  2967   0012D8  6E29               	movwf	___fladd@b^0,c
  2968   0012DA  0EFF               	movlw	255
  2969   0012DC  2032               	addwfc	(??___fladd+1)^0,w,c
  2970   0012DE  6E2A               	movwf	(___fladd@b+1)^0,c
  2971   0012E0  0EFF               	movlw	255
  2972   0012E2  2033               	addwfc	(??___fladd+2)^0,w,c
  2973   0012E4  6E2B               	movwf	(___fladd@b+2)^0,c
  2974   0012E6  0EFF               	movlw	255
  2975   0012E8  2034               	addwfc	(??___fladd+3)^0,w,c
  2976   0012EA  6E2C               	movwf	(___fladd@b+3)^0,c
  2977   0012EC  0E80               	movlw	128
  2978   0012EE  1A35               	xorwf	___fladd@signs^0,f,c
  2979   0012F0  6C38               	negf	___fladd@grs^0,c
  2980   0012F2  5038               	movf	___fladd@grs^0,w,c
  2981   0012F4  A4D8               	btfss	status,2,c
  2982   0012F6  EF7F  F009         	goto	u4111
  2983   0012FA  EF81  F009         	goto	u4110
  2984   0012FE                     u4111:
  2985   0012FE  EF91  F009         	goto	l2063
  2986   001302                     u4110:
  2987   001302  0E01               	movlw	1
  2988   001304  2629               	addwf	___fladd@b^0,f,c
  2989   001306  0E00               	movlw	0
  2990   001308  222A               	addwfc	(___fladd@b+1)^0,f,c
  2991   00130A  222B               	addwfc	(___fladd@b+2)^0,f,c
  2992   00130C  222C               	addwfc	(___fladd@b+3)^0,f,c
  2993   00130E  EF91  F009         	goto	l2063
  2994   001312                     l5256:
  2995   001312  502D               	movf	___fladd@a^0,w,c
  2996   001314  5E29               	subwf	___fladd@b^0,f,c
  2997   001316  502E               	movf	(___fladd@a+1)^0,w,c
  2998   001318  5A2A               	subwfb	(___fladd@b+1)^0,f,c
  2999   00131A  502F               	movf	(___fladd@a+2)^0,w,c
  3000   00131C  5A2B               	subwfb	(___fladd@b+2)^0,f,c
  3001   00131E  5030               	movf	(___fladd@a+3)^0,w,c
  3002   001320  5A2C               	subwfb	(___fladd@b+3)^0,f,c
  3003   001322                     l2063:
  3004   001322  5029               	movf	___fladd@b^0,w,c
  3005   001324  102A               	iorwf	(___fladd@b+1)^0,w,c
  3006   001326  102B               	iorwf	(___fladd@b+2)^0,w,c
  3007   001328  102C               	iorwf	(___fladd@b+3)^0,w,c
  3008   00132A  A4D8               	btfss	status,2,c
  3009   00132C  EF9A  F009         	goto	u4121
  3010   001330  EF9C  F009         	goto	u4120
  3011   001334                     u4121:
  3012   001334  EFD1  F009         	goto	l5280
  3013   001338                     u4120:
  3014   001338  5038               	movf	___fladd@grs^0,w,c
  3015   00133A  A4D8               	btfss	status,2,c
  3016   00133C  EFA2  F009         	goto	u4131
  3017   001340  EFA4  F009         	goto	u4130
  3018   001344                     u4131:
  3019   001344  EFD1  F009         	goto	l5280
  3020   001348                     u4130:
  3021   001348  0E00               	movlw	0
  3022   00134A  6E29               	movwf	?___fladd^0,c
  3023   00134C  0E00               	movlw	0
  3024   00134E  6E2A               	movwf	(?___fladd+1)^0,c
  3025   001350  0E00               	movlw	0
  3026   001352  6E2B               	movwf	(?___fladd+2)^0,c
  3027   001354  0E00               	movlw	0
  3028   001356  6E2C               	movwf	(?___fladd+3)^0,c
  3029   001358  EF6C  F00A         	goto	l2055
  3030   00135C                     l5264:
  3031   00135C  90D8               	bcf	status,0,c
  3032   00135E  3629               	rlcf	___fladd@b^0,f,c
  3033   001360  362A               	rlcf	(___fladd@b+1)^0,f,c
  3034   001362  362B               	rlcf	(___fladd@b+2)^0,f,c
  3035   001364  362C               	rlcf	(___fladd@b+3)^0,f,c
  3036   001366  AE38               	btfss	___fladd@grs^0,7,c
  3037   001368  EFB8  F009         	goto	u4141
  3038   00136C  EFBA  F009         	goto	u4140
  3039   001370                     u4141:
  3040   001370  EFBB  F009         	goto	l5270
  3041   001374                     u4140:
  3042   001374  8029               	bsf	___fladd@b^0,0,c
  3043   001376                     l5270:
  3044   001376  A038               	btfss	___fladd@grs^0,0,c
  3045   001378  EFC0  F009         	goto	u4151
  3046   00137C  EFC2  F009         	goto	u4150
  3047   001380                     u4151:
  3048   001380  EFC6  F009         	goto	l5274
  3049   001384                     u4150:
  3050   001384  80D8               	bsf	status,0,c
  3051   001386  3638               	rlcf	___fladd@grs^0,f,c
  3052   001388  EFC8  F009         	goto	l5276
  3053   00138C                     l5274:
  3054   00138C  90D8               	bcf	status,0,c
  3055   00138E  3638               	rlcf	___fladd@grs^0,f,c
  3056   001390                     l5276:
  3057   001390  5037               	movf	___fladd@bexp^0,w,c
  3058   001392  B4D8               	btfsc	status,2,c
  3059   001394  EFCE  F009         	goto	u4161
  3060   001398  EFD0  F009         	goto	u4160
  3061   00139C                     u4161:
  3062   00139C  EFD1  F009         	goto	l5280
  3063   0013A0                     u4160:
  3064   0013A0  0637               	decf	___fladd@bexp^0,f,c
  3065   0013A2                     l5280:
  3066   0013A2  AE2B               	btfss	(___fladd@b+2)^0,7,c
  3067   0013A4  EFD6  F009         	goto	u4171
  3068   0013A8  EFD8  F009         	goto	u4170
  3069   0013AC                     u4171:
  3070   0013AC  EFAE  F009         	goto	l5264
  3071   0013B0                     u4170:
  3072   0013B0                     l5282:
  3073   0013B0  0E00               	movlw	0
  3074   0013B2  6E36               	movwf	___fladd@aexp^0,c
  3075   0013B4  AE38               	btfss	___fladd@grs^0,7,c
  3076   0013B6  EFDF  F009         	goto	u4181
  3077   0013BA  EFE1  F009         	goto	u4180
  3078   0013BE                     u4181:
  3079   0013BE  EFF9  F009         	goto	l2072
  3080   0013C2                     u4180:
  3081   0013C2  C038  F031         	movff	___fladd@grs,??___fladd
  3082   0013C6  0E7F               	movlw	127
  3083   0013C8  1631               	andwf	??___fladd^0,f,c
  3084   0013CA  B4D8               	btfsc	status,2,c
  3085   0013CC  EFEA  F009         	goto	u4191
  3086   0013D0  EFEC  F009         	goto	u4190
  3087   0013D4                     u4191:
  3088   0013D4  EFF0  F009         	goto	l2073
  3089   0013D8                     u4190:
  3090   0013D8                     l5288:
  3091   0013D8  0E01               	movlw	1
  3092   0013DA  6E36               	movwf	___fladd@aexp^0,c
  3093   0013DC  EFF9  F009         	goto	l2072
  3094   0013E0                     l2073:
  3095   0013E0  A029               	btfss	___fladd@b^0,0,c
  3096   0013E2  EFF5  F009         	goto	u4201
  3097   0013E6  EFF7  F009         	goto	u4200
  3098   0013EA                     u4201:
  3099   0013EA  EFF9  F009         	goto	l2072
  3100   0013EE                     u4200:
  3101   0013EE  EFEC  F009         	goto	l5288
  3102   0013F2                     l2072:
  3103   0013F2  5036               	movf	___fladd@aexp^0,w,c
  3104   0013F4  B4D8               	btfsc	status,2,c
  3105   0013F6  EFFF  F009         	goto	u4211
  3106   0013FA  EF01  F00A         	goto	u4210
  3107   0013FE                     u4211:
  3108   0013FE  EF2C  F00A         	goto	l5300
  3109   001402                     u4210:
  3110   001402  0E01               	movlw	1
  3111   001404  2629               	addwf	___fladd@b^0,f,c
  3112   001406  0E00               	movlw	0
  3113   001408  222A               	addwfc	(___fladd@b+1)^0,f,c
  3114   00140A  222B               	addwfc	(___fladd@b+2)^0,f,c
  3115   00140C  222C               	addwfc	(___fladd@b+3)^0,f,c
  3116   00140E  A02C               	btfss	(___fladd@b+3)^0,0,c
  3117   001410  EF0C  F00A         	goto	u4221
  3118   001414  EF0E  F00A         	goto	u4220
  3119   001418                     u4221:
  3120   001418  EF2C  F00A         	goto	l5300
  3121   00141C                     u4220:
  3122   00141C  C029  F031         	movff	___fladd@b,??___fladd
  3123   001420  C02A  F032         	movff	___fladd@b+1,??___fladd+1
  3124   001424  C02B  F033         	movff	___fladd@b+2,??___fladd+2
  3125   001428  C02C  F034         	movff	___fladd@b+3,??___fladd+3
  3126   00142C  3434               	rlcf	(??___fladd+3)^0,w,c
  3127   00142E  3234               	rrcf	(??___fladd+3)^0,f,c
  3128   001430  3233               	rrcf	(??___fladd+2)^0,f,c
  3129   001432  3232               	rrcf	(??___fladd+1)^0,f,c
  3130   001434  3231               	rrcf	??___fladd^0,f,c
  3131   001436  C031  F029         	movff	??___fladd,___fladd@b
  3132   00143A  C032  F02A         	movff	??___fladd+1,___fladd@b+1
  3133   00143E  C033  F02B         	movff	??___fladd+2,___fladd@b+2
  3134   001442  C034  F02C         	movff	??___fladd+3,___fladd@b+3
  3135   001446  2837               	incf	___fladd@bexp^0,w,c
  3136   001448  B4D8               	btfsc	status,2,c
  3137   00144A  EF29  F00A         	goto	u4231
  3138   00144E  EF2B  F00A         	goto	u4230
  3139   001452                     u4231:
  3140   001452  EF2C  F00A         	goto	l5300
  3141   001456                     u4230:
  3142   001456  2A37               	incf	___fladd@bexp^0,f,c
  3143   001458                     l5300:
  3144   001458  2837               	incf	___fladd@bexp^0,w,c
  3145   00145A  B4D8               	btfsc	status,2,c
  3146   00145C  EF32  F00A         	goto	u4241
  3147   001460  EF34  F00A         	goto	u4240
  3148   001464                     u4241:
  3149   001464  EF3C  F00A         	goto	l5304
  3150   001468                     u4240:
  3151   001468  5037               	movf	___fladd@bexp^0,w,c
  3152   00146A  A4D8               	btfss	status,2,c
  3153   00146C  EF3A  F00A         	goto	u4251
  3154   001470  EF3C  F00A         	goto	u4250
  3155   001474                     u4251:
  3156   001474  EF4E  F00A         	goto	l5308
  3157   001478                     u4250:
  3158   001478                     l5304:
  3159   001478  0E00               	movlw	0
  3160   00147A  6E29               	movwf	___fladd@b^0,c
  3161   00147C  0E00               	movlw	0
  3162   00147E  6E2A               	movwf	(___fladd@b+1)^0,c
  3163   001480  0E00               	movlw	0
  3164   001482  6E2B               	movwf	(___fladd@b+2)^0,c
  3165   001484  0E00               	movlw	0
  3166   001486  6E2C               	movwf	(___fladd@b+3)^0,c
  3167   001488  5037               	movf	___fladd@bexp^0,w,c
  3168   00148A  A4D8               	btfss	status,2,c
  3169   00148C  EF4A  F00A         	goto	u4261
  3170   001490  EF4C  F00A         	goto	u4260
  3171   001494                     u4261:
  3172   001494  EF4E  F00A         	goto	l5308
  3173   001498                     u4260:
  3174   001498  0E00               	movlw	0
  3175   00149A  6E35               	movwf	___fladd@signs^0,c
  3176   00149C                     l5308:
  3177   00149C  A037               	btfss	___fladd@bexp^0,0,c
  3178   00149E  EF53  F00A         	goto	u4271
  3179   0014A2  EF55  F00A         	goto	u4270
  3180   0014A6                     u4271:
  3181   0014A6  EF58  F00A         	goto	l5312
  3182   0014AA                     u4270:
  3183   0014AA  8E2B               	bsf	(___fladd@b+2)^0,7,c
  3184   0014AC  EF59  F00A         	goto	l5314
  3185   0014B0                     l5312:
  3186   0014B0  9E2B               	bcf	(___fladd@b+2)^0,7,c
  3187   0014B2                     l5314:
  3188   0014B2  90D8               	bcf	status,0,c
  3189   0014B4  3037               	rrcf	___fladd@bexp^0,w,c
  3190   0014B6  6E2C               	movwf	(___fladd@b+3)^0,c
  3191   0014B8  AE35               	btfss	___fladd@signs^0,7,c
  3192   0014BA  EF61  F00A         	goto	u4281
  3193   0014BE  EF63  F00A         	goto	u4280
  3194   0014C2                     u4281:
  3195   0014C2  EF64  F00A         	goto	l5320
  3196   0014C6                     u4280:
  3197   0014C6  8E2C               	bsf	(___fladd@b+3)^0,7,c
  3198   0014C8                     l5320:
  3199   0014C8  C029  F029         	movff	___fladd@b,?___fladd
  3200   0014CC  C02A  F02A         	movff	___fladd@b+1,?___fladd+1
  3201   0014D0  C02B  F02B         	movff	___fladd@b+2,?___fladd+2
  3202   0014D4  C02C  F02C         	movff	___fladd@b+3,?___fladd+3
  3203   0014D8                     l2055:
  3204   0014D8  0012               	return		;funcret
  3205   0014DA                     __end_of___fladd:
  3206                           	callstack 0
  3207                           
  3208 ;; *************** function _EUSART_ASYNC_TX_Init *****************
  3209 ;; Defined at:
  3210 ;;		line 169 in file "MCAL_Layer/UART/hal_uart.c"
  3211 ;; Parameters:    Size  Location     Type
  3212 ;;  eusar           2    1[COMRAM] PTR const struct .
  3213 ;;		 -> usart_obj(18), 
  3214 ;; Auto vars:     Size  Location     Type
  3215 ;;		None
  3216 ;; Return value:  Size  Location     Type
  3217 ;;                  1    wreg      void 
  3218 ;; Registers used:
  3219 ;;		wreg, fsr2l, fsr2h, status,2, status,0
  3220 ;; Tracked objects:
  3221 ;;		On entry : 0/0
  3222 ;;		On exit  : 0/0
  3223 ;;		Unchanged: 0/0
  3224 ;; Data sizes:     COMRAM   BANK0   BANK1   BANK2   BANK3   BANK4   BANK5   BANK6   BANK7   BANK8   BANK9  BANK10  BANK1
      +1  BANK12  BANK13  BANK14  BANK15
  3225 ;;      Params:         2       0       0       0       0       0       0       0       0       0       0       0       
      +0       0       0       0       0
  3226 ;;      Locals:         0       0       0       0       0       0       0       0       0       0       0       0       
      +0       0       0       0       0
  3227 ;;      Temps:          0       0       0       0       0       0       0       0       0       0       0       0       
      +0       0       0       0       0
  3228 ;;      Totals:         2       0       0       0       0       0       0       0       0       0       0       0       
      +0       0       0       0       0
  3229 ;;Total ram usage:        2 bytes
  3230 ;; Hardware stack levels used: 1
  3231 ;; Hardware stack levels required when called: 2
  3232 ;; This function calls:
  3233 ;;		Nothing
  3234 ;; This function is called by:
  3235 ;;		_USART_ASYNC_Init
  3236 ;; This function uses a non-reentrant model
  3237 ;;
  3238                           
  3239                           	psect	text8
  3240   002782                     __ptext8:
  3241                           	callstack 0
  3242   002782                     _EUSART_ASYNC_TX_Init:
  3243                           	callstack 26
  3244   002782                     
  3245                           ;MCAL_Layer/UART/hal_uart.c: 170:     if(eusar->tx_cfg.usart_tx_enable == 1){
  3246   002782  EE20 F005          	lfsr	2,5
  3247   002786  5002               	movf	EUSART_ASYNC_TX_Init@eusar^0,w,c
  3248   002788  26D9               	addwf	fsr2l,f,c
  3249   00278A  5003               	movf	(EUSART_ASYNC_TX_Init@eusar+1)^0,w,c
  3250   00278C  22DA               	addwfc	fsr2h,f,c
  3251   00278E  AADF               	btfss	indf2,5,c
  3252   002790  EFCC  F013         	goto	u4801
  3253   002794  EFCE  F013         	goto	u4800
  3254   002798                     u4801:
  3255   002798  EF1A  F014         	goto	l1488
  3256   00279C                     u4800:
  3257   00279C                     
  3258                           ;MCAL_Layer/UART/hal_uart.c: 171:         TXSTAbits.TXEN = 1;
  3259   00279C  8AAC               	bsf	172,5,c	;volatile
  3260   00279E                     
  3261                           ;MCAL_Layer/UART/hal_uart.c: 172:         EUSART_TX_Interrupt_Hundeler = eusar->EUSART_T
      +                          X_DEFUALTINTERRUPT_HUNDELER;
  3262   00279E  EE20 F00A          	lfsr	2,10
  3263   0027A2  5002               	movf	EUSART_ASYNC_TX_Init@eusar^0,w,c
  3264   0027A4  26D9               	addwf	fsr2l,f,c
  3265   0027A6  5003               	movf	(EUSART_ASYNC_TX_Init@eusar+1)^0,w,c
  3266   0027A8  22DA               	addwfc	fsr2h,f,c
  3267   0027AA  CFDE F0C2          	movff	postinc2,_EUSART_TX_Interrupt_Hundeler
  3268   0027AE  CFDD F0C3          	movff	postdec2,_EUSART_TX_Interrupt_Hundeler+1
  3269                           
  3270                           ;MCAL_Layer/UART/hal_uart.c: 173:     if(eusar->tx_cfg.usart_tx_interrupt_enable == 1){
  3271   0027B2  EE20 F005          	lfsr	2,5
  3272   0027B6  5002               	movf	EUSART_ASYNC_TX_Init@eusar^0,w,c
  3273   0027B8  26D9               	addwf	fsr2l,f,c
  3274   0027BA  5003               	movf	(EUSART_ASYNC_TX_Init@eusar+1)^0,w,c
  3275   0027BC  22DA               	addwfc	fsr2h,f,c
  3276   0027BE  ACDF               	btfss	indf2,6,c
  3277   0027C0  EFE4  F013         	goto	u4811
  3278   0027C4  EFE6  F013         	goto	u4810
  3279   0027C8                     u4811:
  3280   0027C8  EFEC  F013         	goto	l5670
  3281   0027CC                     u4810:
  3282   0027CC                     
  3283                           ;MCAL_Layer/UART/hal_uart.c: 174:         PIE1bits.TXIE = 1;
  3284   0027CC  889D               	bsf	157,4,c	;volatile
  3285                           
  3286                           ;MCAL_Layer/UART/hal_uart.c: 176:          (PIE1bits.TXIE = 1);
  3287   0027CE  889D               	bsf	157,4,c	;volatile
  3288                           
  3289                           ;MCAL_Layer/UART/hal_uart.c: 189:   (INTCONbits.GIE = 1);
  3290   0027D0  8EF2               	bsf	242,7,c	;volatile
  3291                           
  3292                           ;MCAL_Layer/UART/hal_uart.c: 190:   (INTCONbits.PEIE = 1);
  3293   0027D2  8CF2               	bsf	242,6,c	;volatile
  3294                           
  3295                           ;MCAL_Layer/UART/hal_uart.c: 193:     }
  3296   0027D4  EFFA  F013         	goto	l5674
  3297   0027D8                     l5670:
  3298   0027D8  EE20 F005          	lfsr	2,5
  3299   0027DC  5002               	movf	EUSART_ASYNC_TX_Init@eusar^0,w,c
  3300   0027DE  26D9               	addwf	fsr2l,f,c
  3301   0027E0  5003               	movf	(EUSART_ASYNC_TX_Init@eusar+1)^0,w,c
  3302   0027E2  22DA               	addwfc	fsr2h,f,c
  3303   0027E4  BCDF               	btfsc	indf2,6,c
  3304   0027E6  EFF7  F013         	goto	u4821
  3305   0027EA  EFF9  F013         	goto	u4820
  3306   0027EE                     u4821:
  3307   0027EE  EFFA  F013         	goto	l5674
  3308   0027F2                     u4820:
  3309   0027F2                     
  3310                           ;MCAL_Layer/UART/hal_uart.c: 195:        PIE1bits.TXIE = 0;
  3311   0027F2  989D               	bcf	157,4,c	;volatile
  3312   0027F4                     l5674:
  3313                           
  3314                           ;MCAL_Layer/UART/hal_uart.c: 198:     if(eusar->tx_cfg.usart_tx_9bit_enable == 1){
  3315   0027F4  EE20 F005          	lfsr	2,5
  3316   0027F8  5002               	movf	EUSART_ASYNC_TX_Init@eusar^0,w,c
  3317   0027FA  26D9               	addwf	fsr2l,f,c
  3318   0027FC  5003               	movf	(EUSART_ASYNC_TX_Init@eusar+1)^0,w,c
  3319   0027FE  22DA               	addwfc	fsr2h,f,c
  3320   002800  AEDF               	btfss	indf2,7,c
  3321   002802  EF05  F014         	goto	u4831
  3322   002806  EF07  F014         	goto	u4830
  3323   00280A                     u4831:
  3324   00280A  EF0A  F014         	goto	l5678
  3325   00280E                     u4830:
  3326   00280E                     
  3327                           ;MCAL_Layer/UART/hal_uart.c: 199:         TXSTAbits.TX9 = 1;
  3328   00280E  8CAC               	bsf	172,6,c	;volatile
  3329                           
  3330                           ;MCAL_Layer/UART/hal_uart.c: 200:     }
  3331   002810  EF1A  F014         	goto	l1488
  3332   002814                     l5678:
  3333   002814  EE20 F005          	lfsr	2,5
  3334   002818  5002               	movf	EUSART_ASYNC_TX_Init@eusar^0,w,c
  3335   00281A  26D9               	addwf	fsr2l,f,c
  3336   00281C  5003               	movf	(EUSART_ASYNC_TX_Init@eusar+1)^0,w,c
  3337   00281E  22DA               	addwfc	fsr2h,f,c
  3338   002820  BEDF               	btfsc	indf2,7,c
  3339   002822  EF15  F014         	goto	u4841
  3340   002826  EF17  F014         	goto	u4840
  3341   00282A                     u4841:
  3342   00282A  EF1A  F014         	goto	l1484
  3343   00282E                     u4840:
  3344   00282E                     
  3345                           ;MCAL_Layer/UART/hal_uart.c: 202:         TXSTAbits.TX9 = 0;
  3346   00282E  9CAC               	bcf	172,6,c	;volatile
  3347                           
  3348                           ;MCAL_Layer/UART/hal_uart.c: 203:     }
  3349   002830  EF1A  F014         	goto	l1488
  3350   002834                     l1484:
  3351   002834                     l1488:
  3352   002834  0012               	return		;funcret
  3353   002836                     __end_of_EUSART_ASYNC_TX_Init:
  3354                           	callstack 0
  3355                           
  3356 ;; *************** function _EUSART_ASYNC_RX_Init *****************
  3357 ;; Defined at:
  3358 ;;		line 209 in file "MCAL_Layer/UART/hal_uart.c"
  3359 ;; Parameters:    Size  Location     Type
  3360 ;;  eusar           2    1[COMRAM] PTR const struct .
  3361 ;;		 -> usart_obj(18), 
  3362 ;; Auto vars:     Size  Location     Type
  3363 ;;		None
  3364 ;; Return value:  Size  Location     Type
  3365 ;;                  1    wreg      void 
  3366 ;; Registers used:
  3367 ;;		wreg, fsr2l, fsr2h, status,2, status,0
  3368 ;; Tracked objects:
  3369 ;;		On entry : 0/0
  3370 ;;		On exit  : 0/0
  3371 ;;		Unchanged: 0/0
  3372 ;; Data sizes:     COMRAM   BANK0   BANK1   BANK2   BANK3   BANK4   BANK5   BANK6   BANK7   BANK8   BANK9  BANK10  BANK1
      +1  BANK12  BANK13  BANK14  BANK15
  3373 ;;      Params:         2       0       0       0       0       0       0       0       0       0       0       0       
      +0       0       0       0       0
  3374 ;;      Locals:         0       0       0       0       0       0       0       0       0       0       0       0       
      +0       0       0       0       0
  3375 ;;      Temps:          0       0       0       0       0       0       0       0       0       0       0       0       
      +0       0       0       0       0
  3376 ;;      Totals:         2       0       0       0       0       0       0       0       0       0       0       0       
      +0       0       0       0       0
  3377 ;;Total ram usage:        2 bytes
  3378 ;; Hardware stack levels used: 1
  3379 ;; Hardware stack levels required when called: 2
  3380 ;; This function calls:
  3381 ;;		Nothing
  3382 ;; This function is called by:
  3383 ;;		_USART_ASYNC_Init
  3384 ;; This function uses a non-reentrant model
  3385 ;;
  3386                           
  3387                           	psect	text9
  3388   0025D6                     __ptext9:
  3389                           	callstack 0
  3390   0025D6                     _EUSART_ASYNC_RX_Init:
  3391                           	callstack 26
  3392   0025D6                     
  3393                           ;MCAL_Layer/UART/hal_uart.c: 210:   if(eusar->rx_cfg.usart_rx_enable == 1){
  3394   0025D6  EE20 F007          	lfsr	2,7
  3395   0025DA  5002               	movf	EUSART_ASYNC_RX_Init@eusar^0,w,c
  3396   0025DC  26D9               	addwf	fsr2l,f,c
  3397   0025DE  5003               	movf	(EUSART_ASYNC_RX_Init@eusar+1)^0,w,c
  3398   0025E0  22DA               	addwfc	fsr2h,f,c
  3399   0025E2  AADF               	btfss	indf2,5,c
  3400   0025E4  EFF6  F012         	goto	u4851
  3401   0025E8  EFF8  F012         	goto	u4850
  3402   0025EC                     u4851:
  3403   0025EC  EF58  F013         	goto	l1501
  3404   0025F0                     u4850:
  3405   0025F0                     
  3406                           ;MCAL_Layer/UART/hal_uart.c: 211:       RCSTAbits.CREN = 1;
  3407   0025F0  88AB               	bsf	171,4,c	;volatile
  3408   0025F2                     
  3409                           ;MCAL_Layer/UART/hal_uart.c: 212:       EUSART_RX_Interrupt_Hundeler = eusar->EUSART_RX_
      +                          DEFUALTINTERRUPT_HUNDELER;
  3410   0025F2  EE20 F00C          	lfsr	2,12
  3411   0025F6  5002               	movf	EUSART_ASYNC_RX_Init@eusar^0,w,c
  3412   0025F8  26D9               	addwf	fsr2l,f,c
  3413   0025FA  5003               	movf	(EUSART_ASYNC_RX_Init@eusar+1)^0,w,c
  3414   0025FC  22DA               	addwfc	fsr2h,f,c
  3415   0025FE  CFDE F0C0          	movff	postinc2,_EUSART_RX_Interrupt_Hundeler
  3416   002602  CFDD F0C1          	movff	postdec2,_EUSART_RX_Interrupt_Hundeler+1
  3417                           
  3418                           ;MCAL_Layer/UART/hal_uart.c: 213:       EUSART_Framig_error_Interrupt_Hundeler = eusar->
      +                          EUSART_Framming_Error_HUNDELER;
  3419   002606  EE20 F00E          	lfsr	2,14
  3420   00260A  5002               	movf	EUSART_ASYNC_RX_Init@eusar^0,w,c
  3421   00260C  26D9               	addwf	fsr2l,f,c
  3422   00260E  5003               	movf	(EUSART_ASYNC_RX_Init@eusar+1)^0,w,c
  3423   002610  22DA               	addwfc	fsr2h,f,c
  3424   002612  CFDE F0BE          	movff	postinc2,_EUSART_Framig_error_Interrupt_Hundeler
  3425   002616  CFDD F0BF          	movff	postdec2,_EUSART_Framig_error_Interrupt_Hundeler+1
  3426                           
  3427                           ;MCAL_Layer/UART/hal_uart.c: 214:       EUSART_Overrun_error_Interrupt_Hundeler = eusar-
      +                          >EUSART_Overrun_Error_HUNDELER;
  3428   00261A  EE20 F010          	lfsr	2,16
  3429   00261E  5002               	movf	EUSART_ASYNC_RX_Init@eusar^0,w,c
  3430   002620  26D9               	addwf	fsr2l,f,c
  3431   002622  5003               	movf	(EUSART_ASYNC_RX_Init@eusar+1)^0,w,c
  3432   002624  22DA               	addwfc	fsr2h,f,c
  3433   002626  CFDE F0BC          	movff	postinc2,_EUSART_Overrun_error_Interrupt_Hundeler
  3434   00262A  CFDD F0BD          	movff	postdec2,_EUSART_Overrun_error_Interrupt_Hundeler+1
  3435                           
  3436                           ;MCAL_Layer/UART/hal_uart.c: 215:     if(eusar->rx_cfg.usart_rx_interrupt_enable == 1){
  3437   00262E  EE20 F007          	lfsr	2,7
  3438   002632  5002               	movf	EUSART_ASYNC_RX_Init@eusar^0,w,c
  3439   002634  26D9               	addwf	fsr2l,f,c
  3440   002636  5003               	movf	(EUSART_ASYNC_RX_Init@eusar+1)^0,w,c
  3441   002638  22DA               	addwfc	fsr2h,f,c
  3442   00263A  ACDF               	btfss	indf2,6,c
  3443   00263C  EF22  F013         	goto	u4861
  3444   002640  EF24  F013         	goto	u4860
  3445   002644                     u4861:
  3446   002644  EF2A  F013         	goto	l5690
  3447   002648                     u4860:
  3448   002648                     
  3449                           ;MCAL_Layer/UART/hal_uart.c: 216:         PIE1bits.RCIE = 1;
  3450   002648  8A9D               	bsf	157,5,c	;volatile
  3451                           
  3452                           ;MCAL_Layer/UART/hal_uart.c: 219:          (PIE1bits.RCIE = 1);
  3453   00264A  8A9D               	bsf	157,5,c	;volatile
  3454                           
  3455                           ;MCAL_Layer/UART/hal_uart.c: 233:   (INTCONbits.GIE = 1);
  3456   00264C  8EF2               	bsf	242,7,c	;volatile
  3457                           
  3458                           ;MCAL_Layer/UART/hal_uart.c: 234:   (INTCONbits.PEIE = 1);
  3459   00264E  8CF2               	bsf	242,6,c	;volatile
  3460                           
  3461                           ;MCAL_Layer/UART/hal_uart.c: 237:     }
  3462   002650  EF38  F013         	goto	l5694
  3463   002654                     l5690:
  3464   002654  EE20 F007          	lfsr	2,7
  3465   002658  5002               	movf	EUSART_ASYNC_RX_Init@eusar^0,w,c
  3466   00265A  26D9               	addwf	fsr2l,f,c
  3467   00265C  5003               	movf	(EUSART_ASYNC_RX_Init@eusar+1)^0,w,c
  3468   00265E  22DA               	addwfc	fsr2h,f,c
  3469   002660  BCDF               	btfsc	indf2,6,c
  3470   002662  EF35  F013         	goto	u4871
  3471   002666  EF37  F013         	goto	u4870
  3472   00266A                     u4871:
  3473   00266A  EF38  F013         	goto	l5694
  3474   00266E                     u4870:
  3475   00266E                     
  3476                           ;MCAL_Layer/UART/hal_uart.c: 239:        PIE1bits.RCIE = 0;
  3477   00266E  9A9D               	bcf	157,5,c	;volatile
  3478   002670                     l5694:
  3479                           
  3480                           ;MCAL_Layer/UART/hal_uart.c: 242:     if(eusar->rx_cfg.usart_rx_9bit_enable == 1){
  3481   002670  EE20 F007          	lfsr	2,7
  3482   002674  5002               	movf	EUSART_ASYNC_RX_Init@eusar^0,w,c
  3483   002676  26D9               	addwf	fsr2l,f,c
  3484   002678  5003               	movf	(EUSART_ASYNC_RX_Init@eusar+1)^0,w,c
  3485   00267A  22DA               	addwfc	fsr2h,f,c
  3486   00267C  AEDF               	btfss	indf2,7,c
  3487   00267E  EF43  F013         	goto	u4881
  3488   002682  EF45  F013         	goto	u4880
  3489   002686                     u4881:
  3490   002686  EF48  F013         	goto	l5698
  3491   00268A                     u4880:
  3492   00268A                     
  3493                           ;MCAL_Layer/UART/hal_uart.c: 243:         RCSTAbits.RX9 = 1;
  3494   00268A  8CAB               	bsf	171,6,c	;volatile
  3495                           
  3496                           ;MCAL_Layer/UART/hal_uart.c: 244:     }
  3497   00268C  EF58  F013         	goto	l1501
  3498   002690                     l5698:
  3499   002690  EE20 F007          	lfsr	2,7
  3500   002694  5002               	movf	EUSART_ASYNC_RX_Init@eusar^0,w,c
  3501   002696  26D9               	addwf	fsr2l,f,c
  3502   002698  5003               	movf	(EUSART_ASYNC_RX_Init@eusar+1)^0,w,c
  3503   00269A  22DA               	addwfc	fsr2h,f,c
  3504   00269C  BEDF               	btfsc	indf2,7,c
  3505   00269E  EF53  F013         	goto	u4891
  3506   0026A2  EF55  F013         	goto	u4890
  3507   0026A6                     u4891:
  3508   0026A6  EF58  F013         	goto	l1497
  3509   0026AA                     u4890:
  3510   0026AA                     
  3511                           ;MCAL_Layer/UART/hal_uart.c: 246:         RCSTAbits.RX9 = 0;
  3512   0026AA  9CAB               	bcf	171,6,c	;volatile
  3513                           
  3514                           ;MCAL_Layer/UART/hal_uart.c: 247:     }
  3515   0026AC  EF58  F013         	goto	l1501
  3516   0026B0                     l1497:
  3517   0026B0                     l1501:
  3518   0026B0  0012               	return		;funcret
  3519   0026B2                     __end_of_EUSART_ASYNC_RX_Init:
  3520                           	callstack 0
  3521                           
  3522 ;; *************** function _led_toggle *****************
  3523 ;; Defined at:
  3524 ;;		line 74 in file "ECU_Layer/LED/ecu_led.c"
  3525 ;; Parameters:    Size  Location     Type
  3526 ;;  led             2    8[COMRAM] PTR const struct .
  3527 ;;		 -> led2(1), led1(1), 
  3528 ;; Auto vars:     Size  Location     Type
  3529 ;;  pin_obj         1   11[COMRAM] struct .
  3530 ;;  ret             1    0        unsigned char 
  3531 ;; Return value:  Size  Location     Type
  3532 ;;                  1    wreg      unsigned char 
  3533 ;; Registers used:
  3534 ;;		wreg, fsr2l, fsr2h, status,2, status,0, prodl, prodh, cstack
  3535 ;; Tracked objects:
  3536 ;;		On entry : 0/0
  3537 ;;		On exit  : 0/0
  3538 ;;		Unchanged: 0/0
  3539 ;; Data sizes:     COMRAM   BANK0   BANK1   BANK2   BANK3   BANK4   BANK5   BANK6   BANK7   BANK8   BANK9  BANK10  BANK1
      +1  BANK12  BANK13  BANK14  BANK15
  3540 ;;      Params:         2       0       0       0       0       0       0       0       0       0       0       0       
      +0       0       0       0       0
  3541 ;;      Locals:         1       0       0       0       0       0       0       0       0       0       0       0       
      +0       0       0       0       0
  3542 ;;      Temps:          1       0       0       0       0       0       0       0       0       0       0       0       
      +0       0       0       0       0
  3543 ;;      Totals:         4       0       0       0       0       0       0       0       0       0       0       0       
      +0       0       0       0       0
  3544 ;;Total ram usage:        4 bytes
  3545 ;; Hardware stack levels used: 1
  3546 ;; Hardware stack levels required when called: 3
  3547 ;; This function calls:
  3548 ;;		_gpio_pin_toggle_logic
  3549 ;; This function is called by:
  3550 ;;		_main
  3551 ;; This function uses a non-reentrant model
  3552 ;;
  3553                           
  3554                           	psect	text10
  3555   0029C6                     __ptext10:
  3556                           	callstack 0
  3557   0029C6                     _led_toggle:
  3558                           	callstack 27
  3559   0029C6                     
  3560                           ;ECU_Layer/LED/ecu_led.c: 76: if(led == ((void*)0)){
  3561   0029C6  5009               	movf	led_toggle@led^0,w,c
  3562   0029C8  100A               	iorwf	(led_toggle@led+1)^0,w,c
  3563   0029CA  A4D8               	btfss	status,2,c
  3564   0029CC  EFEA  F014         	goto	u5121
  3565   0029D0  EFEC  F014         	goto	u5120
  3566   0029D4                     u5121:
  3567   0029D4  EFEE  F014         	goto	l270
  3568   0029D8                     u5120:
  3569   0029D8                     
  3570                           ;ECU_Layer/LED/ecu_led.c: 78: }
  3571   0029D8  EF1B  F015         	goto	l274
  3572   0029DC                     l270:
  3573                           
  3574                           ;ECU_Layer/LED/ecu_led.c: 80:      pin_config_t pin_obj = {.port = led->Port_Name,
  3575   0029DC  C072  F00C         	movff	led_toggle@F3063,led_toggle@pin_obj
  3576   0029E0  C009  FFD9         	movff	led_toggle@led,fsr2l
  3577   0029E4  C00A  FFDA         	movff	led_toggle@led+1,fsr2h
  3578   0029E8  50DF               	movf	223,w,c
  3579   0029EA  0B0F               	andlw	15
  3580   0029EC  6E0B               	movwf	??_led_toggle^0,c
  3581   0029EE  500C               	movf	led_toggle@pin_obj^0,w,c
  3582   0029F0  180B               	xorwf	??_led_toggle^0,w,c
  3583   0029F2  0BF8               	andlw	-8
  3584   0029F4  180B               	xorwf	??_led_toggle^0,w,c
  3585   0029F6  6E0C               	movwf	led_toggle@pin_obj^0,c
  3586   0029F8  C009  FFD9         	movff	led_toggle@led,fsr2l
  3587   0029FC  C00A  FFDA         	movff	led_toggle@led+1,fsr2h
  3588   002A00  38DF               	swapf	223,w,c
  3589   002A02  0B07               	andlw	7
  3590   002A04  6E0B               	movwf	??_led_toggle^0,c
  3591   002A06  460B               	rlncf	??_led_toggle^0,f,c
  3592   002A08  460B               	rlncf	??_led_toggle^0,f,c
  3593   002A0A  460B               	rlncf	??_led_toggle^0,f,c
  3594   002A0C  500C               	movf	led_toggle@pin_obj^0,w,c
  3595   002A0E  180B               	xorwf	??_led_toggle^0,w,c
  3596   002A10  0BC7               	andlw	-57
  3597   002A12  180B               	xorwf	??_led_toggle^0,w,c
  3598   002A14  6E0C               	movwf	led_toggle@pin_obj^0,c
  3599   002A16  9C0C               	bcf	led_toggle@pin_obj^0,6,c
  3600   002A18  C009  FFD9         	movff	led_toggle@led,fsr2l
  3601   002A1C  C00A  FFDA         	movff	led_toggle@led+1,fsr2h
  3602   002A20  AEDF               	btfss	indf2,7,c
  3603   002A22  D002               	bra	u5135
  3604   002A24  8E0C               	bsf	led_toggle@pin_obj^0,7,c
  3605   002A26  D001               	bra	u5137
  3606   002A28                     u5135:
  3607   002A28  9E0C               	bcf	led_toggle@pin_obj^0,7,c
  3608   002A2A                     u5137:
  3609   002A2A                     
  3610                           ;ECU_Layer/LED/ecu_led.c: 85:      gpio_pin_toggle_logic(&pin_obj);
  3611   002A2A  0E0C               	movlw	low led_toggle@pin_obj
  3612   002A2C  6E02               	movwf	gpio_pin_toggle_logic@pin_config^0,c
  3613   002A2E  0E00               	movlw	high led_toggle@pin_obj
  3614   002A30  6E03               	movwf	(gpio_pin_toggle_logic@pin_config+1)^0,c
  3615   002A32  EC1B  F014         	call	_gpio_pin_toggle_logic	;wreg free
  3616   002A36                     l274:
  3617   002A36  0012               	return		;funcret
  3618   002A38                     __end_of_led_toggle:
  3619                           	callstack 0
  3620                           
  3621 ;; *************** function _gpio_pin_toggle_logic *****************
  3622 ;; Defined at:
  3623 ;;		line 109 in file "MCAL_Layer/GPIO/hal_gpio.c"
  3624 ;; Parameters:    Size  Location     Type
  3625 ;;  pin_config      2    1[COMRAM] PTR const struct .
  3626 ;;		 -> led_toggle@pin_obj(1), 
  3627 ;; Auto vars:     Size  Location     Type
  3628 ;;  ret             1    0        unsigned char 
  3629 ;; Return value:  Size  Location     Type
  3630 ;;                  1    wreg      unsigned char 
  3631 ;; Registers used:
  3632 ;;		wreg, fsr2l, fsr2h, status,2, status,0, prodl, prodh
  3633 ;; Tracked objects:
  3634 ;;		On entry : 0/0
  3635 ;;		On exit  : 0/0
  3636 ;;		Unchanged: 0/0
  3637 ;; Data sizes:     COMRAM   BANK0   BANK1   BANK2   BANK3   BANK4   BANK5   BANK6   BANK7   BANK8   BANK9  BANK10  BANK1
      +1  BANK12  BANK13  BANK14  BANK15
  3638 ;;      Params:         2       0       0       0       0       0       0       0       0       0       0       0       
      +0       0       0       0       0
  3639 ;;      Locals:         0       0       0       0       0       0       0       0       0       0       0       0       
      +0       0       0       0       0
  3640 ;;      Temps:          5       0       0       0       0       0       0       0       0       0       0       0       
      +0       0       0       0       0
  3641 ;;      Totals:         7       0       0       0       0       0       0       0       0       0       0       0       
      +0       0       0       0       0
  3642 ;;Total ram usage:        7 bytes
  3643 ;; Hardware stack levels used: 1
  3644 ;; Hardware stack levels required when called: 2
  3645 ;; This function calls:
  3646 ;;		Nothing
  3647 ;; This function is called by:
  3648 ;;		_led_toggle
  3649 ;; This function uses a non-reentrant model
  3650 ;;
  3651                           
  3652                           	psect	text11
  3653   002836                     __ptext11:
  3654                           	callstack 0
  3655   002836                     _gpio_pin_toggle_logic:
  3656                           	callstack 27
  3657   002836                     
  3658                           ;MCAL_Layer/GPIO/hal_gpio.c: 111:       if(pin_config == ((void*)0) || pin_config->pin >
      +                           8 -1){
  3659   002836  5002               	movf	gpio_pin_toggle_logic@pin_config^0,w,c
  3660   002838  1003               	iorwf	(gpio_pin_toggle_logic@pin_config+1)^0,w,c
  3661   00283A  B4D8               	btfsc	status,2,c
  3662   00283C  EF22  F014         	goto	u4931
  3663   002840  EF24  F014         	goto	u4930
  3664   002844                     u4931:
  3665   002844  EF35  F014         	goto	l5746
  3666   002848                     u4930:
  3667   002848  C002  FFD9         	movff	gpio_pin_toggle_logic@pin_config,fsr2l
  3668   00284C  C003  FFDA         	movff	gpio_pin_toggle_logic@pin_config+1,fsr2h
  3669   002850  30DF               	rrcf	223,w,c
  3670   002852  32E8               	rrcf	wreg,f,c
  3671   002854  32E8               	rrcf	wreg,f,c
  3672   002856  0B07               	andlw	7
  3673   002858  6E04               	movwf	??_gpio_pin_toggle_logic^0,c
  3674   00285A  0E07               	movlw	7
  3675   00285C  6404               	cpfsgt	??_gpio_pin_toggle_logic^0,c
  3676   00285E  EF33  F014         	goto	u4941
  3677   002862  EF35  F014         	goto	u4940
  3678   002866                     u4941:
  3679   002866  EF37  F014         	goto	l5748
  3680   00286A                     u4940:
  3681   00286A                     l5746:
  3682                           
  3683                           ;MCAL_Layer/GPIO/hal_gpio.c: 113:  }
  3684   00286A  EF63  F014         	goto	l778
  3685   00286E                     l5748:
  3686                           
  3687                           ;MCAL_Layer/GPIO/hal_gpio.c: 115:   (*lat_registers[pin_config->port] ^=(1<<pin_config->
      +                          pin));
  3688   00286E  C002  FFD9         	movff	gpio_pin_toggle_logic@pin_config,fsr2l
  3689   002872  C003  FFDA         	movff	gpio_pin_toggle_logic@pin_config+1,fsr2h
  3690   002876  30DF               	rrcf	223,w,c
  3691   002878  32E8               	rrcf	wreg,f,c
  3692   00287A  32E8               	rrcf	wreg,f,c
  3693   00287C  0B07               	andlw	7
  3694   00287E  6E04               	movwf	??_gpio_pin_toggle_logic^0,c
  3695   002880  0E01               	movlw	1
  3696   002882  6E05               	movwf	(??_gpio_pin_toggle_logic+1)^0,c
  3697   002884  2A04               	incf	??_gpio_pin_toggle_logic^0,f,c
  3698   002886  EF47  F014         	goto	u4954
  3699   00288A                     u4955:
  3700   00288A  90D8               	bcf	status,0,c
  3701   00288C  3605               	rlcf	(??_gpio_pin_toggle_logic+1)^0,f,c
  3702   00288E                     u4954:
  3703   00288E  2E04               	decfsz	??_gpio_pin_toggle_logic^0,f,c
  3704   002890  EF45  F014         	goto	u4955
  3705   002894  C002  FFD9         	movff	gpio_pin_toggle_logic@pin_config,fsr2l
  3706   002898  C003  FFDA         	movff	gpio_pin_toggle_logic@pin_config+1,fsr2h
  3707   00289C  50DF               	movf	223,w,c
  3708   00289E  0B07               	andlw	7
  3709   0028A0  6E06               	movwf	(??_gpio_pin_toggle_logic+2)^0,c
  3710   0028A2  5006               	movf	(??_gpio_pin_toggle_logic+2)^0,w,c
  3711   0028A4  0D02               	mullw	2
  3712   0028A6  0E8A               	movlw	low _lat_registers
  3713   0028A8  24F3               	addwf	243,w,c
  3714   0028AA  6ED9               	movwf	fsr2l,c
  3715   0028AC  0E00               	movlw	high _lat_registers
  3716   0028AE  20F4               	addwfc	prodh,w,c
  3717   0028B0  6EDA               	movwf	fsr2h,c
  3718   0028B2  CFDE F007          	movff	postinc2,??_gpio_pin_toggle_logic+3
  3719   0028B6  CFDD F008          	movff	postdec2,??_gpio_pin_toggle_logic+4
  3720   0028BA  C007  FFD9         	movff	??_gpio_pin_toggle_logic+3,fsr2l
  3721   0028BE  C008  FFDA         	movff	??_gpio_pin_toggle_logic+4,fsr2h
  3722   0028C2  5005               	movf	(??_gpio_pin_toggle_logic+1)^0,w,c
  3723   0028C4  1ADF               	xorwf	indf2,f,c
  3724   0028C6                     l778:
  3725   0028C6  0012               	return		;funcret
  3726   0028C8                     __end_of_gpio_pin_toggle_logic:
  3727                           	callstack 0
  3728                           
  3729 ;; *************** function _led_initialize *****************
  3730 ;; Defined at:
  3731 ;;		line 7 in file "ECU_Layer/LED/ecu_led.c"
  3732 ;; Parameters:    Size  Location     Type
  3733 ;;  led             2   15[COMRAM] PTR const struct .
  3734 ;;		 -> led2(1), led1(1), 
  3735 ;; Auto vars:     Size  Location     Type
  3736 ;;  pin_obj         1   19[COMRAM] struct .
  3737 ;;  ret             1   18[COMRAM] unsigned char 
  3738 ;; Return value:  Size  Location     Type
  3739 ;;                  1    wreg      unsigned char 
  3740 ;; Registers used:
  3741 ;;		wreg, fsr2l, fsr2h, status,2, status,0, prodl, prodh, cstack
  3742 ;; Tracked objects:
  3743 ;;		On entry : 0/0
  3744 ;;		On exit  : 0/0
  3745 ;;		Unchanged: 0/0
  3746 ;; Data sizes:     COMRAM   BANK0   BANK1   BANK2   BANK3   BANK4   BANK5   BANK6   BANK7   BANK8   BANK9  BANK10  BANK1
      +1  BANK12  BANK13  BANK14  BANK15
  3747 ;;      Params:         2       0       0       0       0       0       0       0       0       0       0       0       
      +0       0       0       0       0
  3748 ;;      Locals:         2       0       0       0       0       0       0       0       0       0       0       0       
      +0       0       0       0       0
  3749 ;;      Temps:          1       0       0       0       0       0       0       0       0       0       0       0       
      +0       0       0       0       0
  3750 ;;      Totals:         5       0       0       0       0       0       0       0       0       0       0       0       
      +0       0       0       0       0
  3751 ;;Total ram usage:        5 bytes
  3752 ;; Hardware stack levels used: 1
  3753 ;; Hardware stack levels required when called: 4
  3754 ;; This function calls:
  3755 ;;		_gpio_pin_intialize
  3756 ;; This function is called by:
  3757 ;;		_main
  3758 ;; This function uses a non-reentrant model
  3759 ;;
  3760                           
  3761                           	psect	text12
  3762   00294A                     __ptext12:
  3763                           	callstack 0
  3764   00294A                     _led_initialize:
  3765                           	callstack 26
  3766   00294A                     
  3767                           ;ECU_Layer/LED/ecu_led.c: 9: Std_ReturnType ret = (Std_ReturnType)0x01;
  3768   00294A  0E01               	movlw	1
  3769   00294C  6E13               	movwf	led_initialize@ret^0,c
  3770   00294E                     
  3771                           ;ECU_Layer/LED/ecu_led.c: 10: if(led == ((void*)0)){
  3772   00294E  5010               	movf	led_initialize@led^0,w,c
  3773   002950  1011               	iorwf	(led_initialize@led+1)^0,w,c
  3774   002952  A4D8               	btfss	status,2,c
  3775   002954  EFAE  F014         	goto	u5101
  3776   002958  EFB0  F014         	goto	u5100
  3777   00295C                     u5101:
  3778   00295C  EFB4  F014         	goto	l249
  3779   002960                     u5100:
  3780   002960                     
  3781                           ;ECU_Layer/LED/ecu_led.c: 11:    ret = (Std_ReturnType)0x00;
  3782   002960  0E00               	movlw	0
  3783   002962  6E13               	movwf	led_initialize@ret^0,c
  3784                           
  3785                           ;ECU_Layer/LED/ecu_led.c: 12: }
  3786   002964  EFE1  F014         	goto	l5928
  3787   002968                     l249:
  3788                           
  3789                           ;ECU_Layer/LED/ecu_led.c: 14:     pin_config_t pin_obj = {.port = led->Port_Name,
  3790   002968  C075  F014         	movff	led_initialize@F3048,led_initialize@pin_obj
  3791   00296C  C010  FFD9         	movff	led_initialize@led,fsr2l
  3792   002970  C011  FFDA         	movff	led_initialize@led+1,fsr2h
  3793   002974  50DF               	movf	223,w,c
  3794   002976  0B0F               	andlw	15
  3795   002978  6E12               	movwf	??_led_initialize^0,c
  3796   00297A  5014               	movf	led_initialize@pin_obj^0,w,c
  3797   00297C  1812               	xorwf	??_led_initialize^0,w,c
  3798   00297E  0BF8               	andlw	-8
  3799   002980  1812               	xorwf	??_led_initialize^0,w,c
  3800   002982  6E14               	movwf	led_initialize@pin_obj^0,c
  3801   002984  C010  FFD9         	movff	led_initialize@led,fsr2l
  3802   002988  C011  FFDA         	movff	led_initialize@led+1,fsr2h
  3803   00298C  38DF               	swapf	223,w,c
  3804   00298E  0B07               	andlw	7
  3805   002990  6E12               	movwf	??_led_initialize^0,c
  3806   002992  4612               	rlncf	??_led_initialize^0,f,c
  3807   002994  4612               	rlncf	??_led_initialize^0,f,c
  3808   002996  4612               	rlncf	??_led_initialize^0,f,c
  3809   002998  5014               	movf	led_initialize@pin_obj^0,w,c
  3810   00299A  1812               	xorwf	??_led_initialize^0,w,c
  3811   00299C  0BC7               	andlw	-57
  3812   00299E  1812               	xorwf	??_led_initialize^0,w,c
  3813   0029A0  6E14               	movwf	led_initialize@pin_obj^0,c
  3814   0029A2  9C14               	bcf	led_initialize@pin_obj^0,6,c
  3815   0029A4  C010  FFD9         	movff	led_initialize@led,fsr2l
  3816   0029A8  C011  FFDA         	movff	led_initialize@led+1,fsr2h
  3817   0029AC  AEDF               	btfss	indf2,7,c
  3818   0029AE  D002               	bra	u5115
  3819   0029B0  8E14               	bsf	led_initialize@pin_obj^0,7,c
  3820   0029B2  D001               	bra	u5117
  3821   0029B4                     u5115:
  3822   0029B4  9E14               	bcf	led_initialize@pin_obj^0,7,c
  3823   0029B6                     u5117:
  3824   0029B6                     
  3825                           ;ECU_Layer/LED/ecu_led.c: 19:     gpio_pin_intialize(&pin_obj);
  3826   0029B6  0E14               	movlw	low led_initialize@pin_obj
  3827   0029B8  6E0C               	movwf	gpio_pin_intialize@pin_config^0,c
  3828   0029BA  0E00               	movlw	high led_initialize@pin_obj
  3829   0029BC  6E0D               	movwf	(gpio_pin_intialize@pin_config+1)^0,c
  3830   0029BE  EC1C  F015         	call	_gpio_pin_intialize	;wreg free
  3831   0029C2                     l5928:
  3832                           
  3833                           ;ECU_Layer/LED/ecu_led.c: 21: return ret;
  3834   0029C2  5013               	movf	led_initialize@ret^0,w,c
  3835   0029C4  0012               	return		;funcret
  3836   0029C6                     __end_of_led_initialize:
  3837                           	callstack 0
  3838                           
  3839 ;; *************** function _gpio_pin_intialize *****************
  3840 ;; Defined at:
  3841 ;;		line 127 in file "MCAL_Layer/GPIO/hal_gpio.c"
  3842 ;; Parameters:    Size  Location     Type
  3843 ;;  pin_config      2   11[COMRAM] PTR const struct .
  3844 ;;		 -> lcd_1.lcd_data(4), lcd_1(6), Relay_Initialize@pin_obj(1), led_initialize@pin_obj(1), 
  3845 ;; Auto vars:     Size  Location     Type
  3846 ;;  ret             1   14[COMRAM] unsigned char 
  3847 ;; Return value:  Size  Location     Type
  3848 ;;                  1    wreg      unsigned char 
  3849 ;; Registers used:
  3850 ;;		wreg, fsr2l, fsr2h, status,2, status,0, prodl, prodh, cstack
  3851 ;; Tracked objects:
  3852 ;;		On entry : 0/0
  3853 ;;		On exit  : 0/0
  3854 ;;		Unchanged: 0/0
  3855 ;; Data sizes:     COMRAM   BANK0   BANK1   BANK2   BANK3   BANK4   BANK5   BANK6   BANK7   BANK8   BANK9  BANK10  BANK1
      +1  BANK12  BANK13  BANK14  BANK15
  3856 ;;      Params:         2       0       0       0       0       0       0       0       0       0       0       0       
      +0       0       0       0       0
  3857 ;;      Locals:         1       0       0       0       0       0       0       0       0       0       0       0       
      +0       0       0       0       0
  3858 ;;      Temps:          1       0       0       0       0       0       0       0       0       0       0       0       
      +0       0       0       0       0
  3859 ;;      Totals:         4       0       0       0       0       0       0       0       0       0       0       0       
      +0       0       0       0       0
  3860 ;;Total ram usage:        4 bytes
  3861 ;; Hardware stack levels used: 1
  3862 ;; Hardware stack levels required when called: 3
  3863 ;; This function calls:
  3864 ;;		_gpio_pin_direction_intialize
  3865 ;;		_gpio_pin_write_logic
  3866 ;; This function is called by:
  3867 ;;		_led_initialize
  3868 ;;		_segment_initialize
  3869 ;;		_keypade_initialize
  3870 ;;		_lcd_4_bit_initialize
  3871 ;;		_lcd_8_bit_initialize
  3872 ;;		_DC_Motor_Intialize
  3873 ;;		_Relay_Initialize
  3874 ;;		_CCP_CAPTURE_Init
  3875 ;;		_CCP_COMPARE_Init
  3876 ;;		_CCP_PWM_Init
  3877 ;; This function uses a non-reentrant model
  3878 ;;
  3879                           
  3880                           	psect	text13
  3881   002A38                     __ptext13:
  3882                           	callstack 0
  3883   002A38                     _gpio_pin_intialize:
  3884                           	callstack 26
  3885   002A38                     
  3886                           ;MCAL_Layer/GPIO/hal_gpio.c: 129:  if(pin_config == ((void*)0) || pin_config->pin > 8 -1
      +                          ){
  3887   002A38  500C               	movf	gpio_pin_intialize@pin_config^0,w,c
  3888   002A3A  100D               	iorwf	(gpio_pin_intialize@pin_config+1)^0,w,c
  3889   002A3C  B4D8               	btfsc	status,2,c
  3890   002A3E  EF23  F015         	goto	u4901
  3891   002A42  EF25  F015         	goto	u4900
  3892   002A46                     u4901:
  3893   002A46  EF36  F015         	goto	l5708
  3894   002A4A                     u4900:
  3895   002A4A  C00C  FFD9         	movff	gpio_pin_intialize@pin_config,fsr2l
  3896   002A4E  C00D  FFDA         	movff	gpio_pin_intialize@pin_config+1,fsr2h
  3897   002A52  30DF               	rrcf	223,w,c
  3898   002A54  32E8               	rrcf	wreg,f,c
  3899   002A56  32E8               	rrcf	wreg,f,c
  3900   002A58  0B07               	andlw	7
  3901   002A5A  6E0E               	movwf	??_gpio_pin_intialize^0,c
  3902   002A5C  0E07               	movlw	7
  3903   002A5E  640E               	cpfsgt	??_gpio_pin_intialize^0,c
  3904   002A60  EF34  F015         	goto	u4911
  3905   002A64  EF36  F015         	goto	u4910
  3906   002A68                     u4911:
  3907   002A68  EF3A  F015         	goto	l5710
  3908   002A6C                     u4910:
  3909   002A6C                     l5708:
  3910                           
  3911                           ;MCAL_Layer/GPIO/hal_gpio.c: 130:      ret = (Std_ReturnType)0x00;
  3912   002A6C  0E00               	movlw	0
  3913   002A6E  6E0F               	movwf	gpio_pin_intialize@ret^0,c
  3914                           
  3915                           ;MCAL_Layer/GPIO/hal_gpio.c: 131:  }
  3916   002A70  EF50  F015         	goto	l5712
  3917   002A74                     l5710:
  3918                           
  3919                           ;MCAL_Layer/GPIO/hal_gpio.c: 133:      ret = gpio_pin_direction_intialize(pin_config);
  3920   002A74  C00C  F002         	movff	gpio_pin_intialize@pin_config,gpio_pin_direction_intialize@pin_config
  3921   002A78  C00D  F003         	movff	gpio_pin_intialize@pin_config+1,gpio_pin_direction_intialize@pin_config+1
  3922   002A7C  EC28  F011         	call	_gpio_pin_direction_intialize	;wreg free
  3923   002A80  6E0F               	movwf	gpio_pin_intialize@ret^0,c
  3924                           
  3925                           ;MCAL_Layer/GPIO/hal_gpio.c: 134:      ret = gpio_pin_write_logic(pin_config, pin_config
      +                          ->logic);
  3926   002A82  C00C  F002         	movff	gpio_pin_intialize@pin_config,gpio_pin_write_logic@pin_config
  3927   002A86  C00D  F003         	movff	gpio_pin_intialize@pin_config+1,gpio_pin_write_logic@pin_config+1
  3928   002A8A  C00C  FFD9         	movff	gpio_pin_intialize@pin_config,fsr2l
  3929   002A8E  C00D  FFDA         	movff	gpio_pin_intialize@pin_config+1,fsr2h
  3930   002A92  0E00               	movlw	0
  3931   002A94  BEDF               	btfsc	indf2,7,c
  3932   002A96  0E01               	movlw	1
  3933   002A98  6E04               	movwf	gpio_pin_write_logic@logic^0,c
  3934   002A9A  ECCA  F011         	call	_gpio_pin_write_logic	;wreg free
  3935   002A9E  6E0F               	movwf	gpio_pin_intialize@ret^0,c
  3936   002AA0                     l5712:
  3937                           
  3938                           ;MCAL_Layer/GPIO/hal_gpio.c: 136:   return ret;
  3939   002AA0  500F               	movf	gpio_pin_intialize@ret^0,w,c
  3940   002AA2  0012               	return		;funcret
  3941   002AA4                     __end_of_gpio_pin_intialize:
  3942                           	callstack 0
  3943                           
  3944 ;; *************** function _gpio_pin_write_logic *****************
  3945 ;; Defined at:
  3946 ;;		line 59 in file "MCAL_Layer/GPIO/hal_gpio.c"
  3947 ;; Parameters:    Size  Location     Type
  3948 ;;  pin_config      2    1[COMRAM] PTR const struct .
  3949 ;;		 -> lcd_4_bit_send_command@lcd.lcd_data(8), lcd_4_bit_send_char_data@lcd.lcd_data(8), lcd_4_bit_send_data_position@l
      +cd.lcd_data(8), lcd_4_bit_send_string@lcd.lcd_data(8), 
  3950 ;;		 -> lcd_4_bit_send_string_position@lcd.lcd_data(8), lcd_1.lcd_data(8), lcd_1.lcd_data(4), lcd_1(6), 
  3951 ;;		 -> Relay_Turn_OFF@pin_obj(1), Relay_Turn_ON@pin_obj(1), Relay_Initialize@pin_obj(1), led_turn_off@pin_obj(1), 
  3952 ;;		 -> led_turn_on@pin_obj(1), led_initialize@pin_obj(1), lcd_8_bit_send_command@lcd(2), lcd_4_bit_send_string_position
      +@lcd(2), 
  3953 ;;		 -> lcd_4_bit_send_string@lcd(2), lcd_4_bit_send_data_position@lcd(2), lcd_4_bit_send_char_data@lcd(2), lcd_4_bit_se
      +nd_command@lcd(2), 
  3954 ;;  logic           1    3[COMRAM] enum E2968
  3955 ;; Auto vars:     Size  Location     Type
  3956 ;;  ret             1   10[COMRAM] unsigned char 
  3957 ;; Return value:  Size  Location     Type
  3958 ;;                  1    wreg      unsigned char 
  3959 ;; Registers used:
  3960 ;;		wreg, fsr2l, fsr2h, status,2, status,0, prodl, prodh
  3961 ;; Tracked objects:
  3962 ;;		On entry : 0/0
  3963 ;;		On exit  : 0/0
  3964 ;;		Unchanged: 0/0
  3965 ;; Data sizes:     COMRAM   BANK0   BANK1   BANK2   BANK3   BANK4   BANK5   BANK6   BANK7   BANK8   BANK9  BANK10  BANK1
      +1  BANK12  BANK13  BANK14  BANK15
  3966 ;;      Params:         3       0       0       0       0       0       0       0       0       0       0       0       
      +0       0       0       0       0
  3967 ;;      Locals:         1       0       0       0       0       0       0       0       0       0       0       0       
      +0       0       0       0       0
  3968 ;;      Temps:          6       0       0       0       0       0       0       0       0       0       0       0       
      +0       0       0       0       0
  3969 ;;      Totals:        10       0       0       0       0       0       0       0       0       0       0       0       
      +0       0       0       0       0
  3970 ;;Total ram usage:       10 bytes
  3971 ;; Hardware stack levels used: 1
  3972 ;; Hardware stack levels required when called: 2
  3973 ;; This function calls:
  3974 ;;		Nothing
  3975 ;; This function is called by:
  3976 ;;		_gpio_pin_intialize
  3977 ;;		_segment_write_data
  3978 ;;		_keypade_get_value
  3979 ;;		_lcd_4_bit_send_command
  3980 ;;		_lcd_4_bit_send_char_data
  3981 ;;		_lcd_8_bit_send_command
  3982 ;;		_lcd_8_bit_send_char_data
  3983 ;;		_send_4bit_data
  3984 ;;		_lcd_4bit_send_enable_signal
  3985 ;;		_lcd_8bit_send_enable_signal
  3986 ;;		_led_turn_on
  3987 ;;		_led_turn_off
  3988 ;;		_DC_Motor_Move_Right
  3989 ;;		_DC_Motor_Move_Left
  3990 ;;		_DC_Motor_Stop
  3991 ;;		_Relay_Turn_ON
  3992 ;;		_Relay_Turn_OFF
  3993 ;; This function uses a non-reentrant model
  3994 ;;
  3995                           
  3996                           	psect	text14
  3997   002394                     __ptext14:
  3998                           	callstack 0
  3999   002394                     _gpio_pin_write_logic:
  4000                           	callstack 26
  4001   002394                     
  4002                           ;MCAL_Layer/GPIO/hal_gpio.c: 60:     Std_ReturnType ret = (Std_ReturnType)0x01;
  4003   002394  0E01               	movlw	1
  4004   002396  6E0B               	movwf	gpio_pin_write_logic@ret^0,c
  4005   002398                     
  4006                           ;MCAL_Layer/GPIO/hal_gpio.c: 61:       if(pin_config == ((void*)0) || logic == ((void*)0
      +                          ) || pin_config->pin > 8 -1){
  4007   002398  5002               	movf	gpio_pin_write_logic@pin_config^0,w,c
  4008   00239A  1003               	iorwf	(gpio_pin_write_logic@pin_config+1)^0,w,c
  4009   00239C  B4D8               	btfsc	status,2,c
  4010   00239E  EFD3  F011         	goto	u4691
  4011   0023A2  EFD5  F011         	goto	u4690
  4012   0023A6                     u4691:
  4013   0023A6  EFEE  F011         	goto	l5560
  4014   0023AA                     u4690:
  4015   0023AA  5004               	movf	gpio_pin_write_logic@logic^0,w,c
  4016   0023AC  B4D8               	btfsc	status,2,c
  4017   0023AE  EFDB  F011         	goto	u4701
  4018   0023B2  EFDD  F011         	goto	u4700
  4019   0023B6                     u4701:
  4020   0023B6  EFEE  F011         	goto	l5560
  4021   0023BA                     u4700:
  4022   0023BA  C002  FFD9         	movff	gpio_pin_write_logic@pin_config,fsr2l
  4023   0023BE  C003  FFDA         	movff	gpio_pin_write_logic@pin_config+1,fsr2h
  4024   0023C2  30DF               	rrcf	223,w,c
  4025   0023C4  32E8               	rrcf	wreg,f,c
  4026   0023C6  32E8               	rrcf	wreg,f,c
  4027   0023C8  0B07               	andlw	7
  4028   0023CA  6E05               	movwf	??_gpio_pin_write_logic^0,c
  4029   0023CC  0E07               	movlw	7
  4030   0023CE  6405               	cpfsgt	??_gpio_pin_write_logic^0,c
  4031   0023D0  EFEC  F011         	goto	u4711
  4032   0023D4  EFEE  F011         	goto	u4710
  4033   0023D8                     u4711:
  4034   0023D8  EF51  F012         	goto	l5570
  4035   0023DC                     u4710:
  4036   0023DC                     l5560:
  4037                           
  4038                           ;MCAL_Layer/GPIO/hal_gpio.c: 62:      ret = (Std_ReturnType)0x00;
  4039   0023DC  0E00               	movlw	0
  4040   0023DE  6E0B               	movwf	gpio_pin_write_logic@ret^0,c
  4041                           
  4042                           ;MCAL_Layer/GPIO/hal_gpio.c: 63:  }
  4043   0023E0  EF66  F012         	goto	l5572
  4044   0023E4                     l5562:
  4045                           
  4046                           ;MCAL_Layer/GPIO/hal_gpio.c: 68:            (*lat_registers[pin_config->port] &= ~(1<<pi
      +                          n_config->pin));
  4047   0023E4  C002  FFD9         	movff	gpio_pin_write_logic@pin_config,fsr2l
  4048   0023E8  C003  FFDA         	movff	gpio_pin_write_logic@pin_config+1,fsr2h
  4049   0023EC  30DF               	rrcf	223,w,c
  4050   0023EE  32E8               	rrcf	wreg,f,c
  4051   0023F0  32E8               	rrcf	wreg,f,c
  4052   0023F2  0B07               	andlw	7
  4053   0023F4  6E05               	movwf	??_gpio_pin_write_logic^0,c
  4054   0023F6  0E01               	movlw	1
  4055   0023F8  6E06               	movwf	(??_gpio_pin_write_logic+1)^0,c
  4056   0023FA  2A05               	incf	??_gpio_pin_write_logic^0,f,c
  4057   0023FC  EF02  F012         	goto	u4724
  4058   002400                     u4725:
  4059   002400  90D8               	bcf	status,0,c
  4060   002402  3606               	rlcf	(??_gpio_pin_write_logic+1)^0,f,c
  4061   002404                     u4724:
  4062   002404  2E05               	decfsz	??_gpio_pin_write_logic^0,f,c
  4063   002406  EF00  F012         	goto	u4725
  4064   00240A  5006               	movf	(??_gpio_pin_write_logic+1)^0,w,c
  4065   00240C  0AFF               	xorlw	255
  4066   00240E  6E07               	movwf	(??_gpio_pin_write_logic+2)^0,c
  4067   002410  C002  FFD9         	movff	gpio_pin_write_logic@pin_config,fsr2l
  4068   002414  C003  FFDA         	movff	gpio_pin_write_logic@pin_config+1,fsr2h
  4069   002418  50DF               	movf	223,w,c
  4070   00241A  0B07               	andlw	7
  4071   00241C  6E08               	movwf	(??_gpio_pin_write_logic+3)^0,c
  4072   00241E  5008               	movf	(??_gpio_pin_write_logic+3)^0,w,c
  4073   002420  0D02               	mullw	2
  4074   002422  0E8A               	movlw	low _lat_registers
  4075   002424  24F3               	addwf	243,w,c
  4076   002426  6ED9               	movwf	fsr2l,c
  4077   002428  0E00               	movlw	high _lat_registers
  4078   00242A  20F4               	addwfc	prodh,w,c
  4079   00242C  6EDA               	movwf	fsr2h,c
  4080   00242E  CFDE F009          	movff	postinc2,??_gpio_pin_write_logic+4
  4081   002432  CFDD F00A          	movff	postdec2,??_gpio_pin_write_logic+5
  4082   002436  C009  FFD9         	movff	??_gpio_pin_write_logic+4,fsr2l
  4083   00243A  C00A  FFDA         	movff	??_gpio_pin_write_logic+5,fsr2h
  4084   00243E  5007               	movf	(??_gpio_pin_write_logic+2)^0,w,c
  4085   002440  16DF               	andwf	indf2,f,c
  4086                           
  4087                           ;MCAL_Layer/GPIO/hal_gpio.c: 69:            break;
  4088   002442  EF66  F012         	goto	l5572
  4089   002446                     l5564:
  4090                           
  4091                           ;MCAL_Layer/GPIO/hal_gpio.c: 71:            (*lat_registers[pin_config->port] |= (1<<pin
      +                          _config->pin));
  4092   002446  C002  FFD9         	movff	gpio_pin_write_logic@pin_config,fsr2l
  4093   00244A  C003  FFDA         	movff	gpio_pin_write_logic@pin_config+1,fsr2h
  4094   00244E  30DF               	rrcf	223,w,c
  4095   002450  32E8               	rrcf	wreg,f,c
  4096   002452  32E8               	rrcf	wreg,f,c
  4097   002454  0B07               	andlw	7
  4098   002456  6E05               	movwf	??_gpio_pin_write_logic^0,c
  4099   002458  0E01               	movlw	1
  4100   00245A  6E06               	movwf	(??_gpio_pin_write_logic+1)^0,c
  4101   00245C  2A05               	incf	??_gpio_pin_write_logic^0,f,c
  4102   00245E  EF33  F012         	goto	u4734
  4103   002462                     u4735:
  4104   002462  90D8               	bcf	status,0,c
  4105   002464  3606               	rlcf	(??_gpio_pin_write_logic+1)^0,f,c
  4106   002466                     u4734:
  4107   002466  2E05               	decfsz	??_gpio_pin_write_logic^0,f,c
  4108   002468  EF31  F012         	goto	u4735
  4109   00246C  C002  FFD9         	movff	gpio_pin_write_logic@pin_config,fsr2l
  4110   002470  C003  FFDA         	movff	gpio_pin_write_logic@pin_config+1,fsr2h
  4111   002474  50DF               	movf	223,w,c
  4112   002476  0B07               	andlw	7
  4113   002478  6E07               	movwf	(??_gpio_pin_write_logic+2)^0,c
  4114   00247A  5007               	movf	(??_gpio_pin_write_logic+2)^0,w,c
  4115   00247C  0D02               	mullw	2
  4116   00247E  0E8A               	movlw	low _lat_registers
  4117   002480  24F3               	addwf	243,w,c
  4118   002482  6ED9               	movwf	fsr2l,c
  4119   002484  0E00               	movlw	high _lat_registers
  4120   002486  20F4               	addwfc	prodh,w,c
  4121   002488  6EDA               	movwf	fsr2h,c
  4122   00248A  CFDE F008          	movff	postinc2,??_gpio_pin_write_logic+3
  4123   00248E  CFDD F009          	movff	postdec2,??_gpio_pin_write_logic+4
  4124   002492  C008  FFD9         	movff	??_gpio_pin_write_logic+3,fsr2l
  4125   002496  C009  FFDA         	movff	??_gpio_pin_write_logic+4,fsr2h
  4126   00249A  5006               	movf	(??_gpio_pin_write_logic+1)^0,w,c
  4127   00249C  12DF               	iorwf	indf2,f,c
  4128                           
  4129                           ;MCAL_Layer/GPIO/hal_gpio.c: 72:            break;
  4130   00249E  EF66  F012         	goto	l5572
  4131   0024A2                     l5570:
  4132   0024A2  5004               	movf	gpio_pin_write_logic@logic^0,w,c
  4133   0024A4  6E05               	movwf	??_gpio_pin_write_logic^0,c
  4134   0024A6  6A06               	clrf	(??_gpio_pin_write_logic+1)^0,c
  4135                           
  4136                           ; Switch on 2 bytes has been partitioned into a top level switch of size 1, and 1 sub-sw
      +                          itches
  4137                           ; Switch size 1, requested type "simple"
  4138                           ; Number of cases is 1, Range of values is 0 to 0
  4139                           ; switch strategies available:
  4140                           ; Name         Instructions Cycles
  4141                           ; simple_byte            4     3 (average)
  4142                           ;	Chosen strategy is simple_byte
  4143   0024A8  5006               	movf	(??_gpio_pin_write_logic+1)^0,w,c
  4144   0024AA  0A00               	xorlw	0	; case 0
  4145   0024AC  B4D8               	btfsc	status,2,c
  4146   0024AE  EF5B  F012         	goto	l7244
  4147   0024B2  EFEE  F011         	goto	l5560
  4148   0024B6                     l7244:
  4149                           
  4150                           ; Switch size 1, requested type "simple"
  4151                           ; Number of cases is 2, Range of values is 0 to 1
  4152                           ; switch strategies available:
  4153                           ; Name         Instructions Cycles
  4154                           ; simple_byte            7     4 (average)
  4155                           ;	Chosen strategy is simple_byte
  4156   0024B6  5005               	movf	??_gpio_pin_write_logic^0,w,c
  4157   0024B8  0A00               	xorlw	0	; case 0
  4158   0024BA  B4D8               	btfsc	status,2,c
  4159   0024BC  EFF2  F011         	goto	l5562
  4160   0024C0  0A01               	xorlw	1	; case 1
  4161   0024C2  B4D8               	btfsc	status,2,c
  4162   0024C4  EF23  F012         	goto	l5564
  4163   0024C8  EFEE  F011         	goto	l5560
  4164   0024CC                     l5572:
  4165                           
  4166                           ;MCAL_Layer/GPIO/hal_gpio.c: 78:     return ret;
  4167   0024CC  500B               	movf	gpio_pin_write_logic@ret^0,w,c
  4168   0024CE  0012               	return		;funcret
  4169   0024D0                     __end_of_gpio_pin_write_logic:
  4170                           	callstack 0
  4171                           
  4172 ;; *************** function _gpio_pin_direction_intialize *****************
  4173 ;; Defined at:
  4174 ;;		line 14 in file "MCAL_Layer/GPIO/hal_gpio.c"
  4175 ;; Parameters:    Size  Location     Type
  4176 ;;  pin_config      2    1[COMRAM] PTR const struct .
  4177 ;;		 -> lcd_1.lcd_data(4), lcd_1(6), Relay_Initialize@pin_obj(1), led_initialize@pin_obj(1), 
  4178 ;; Auto vars:     Size  Location     Type
  4179 ;;  ret             1    9[COMRAM] unsigned char 
  4180 ;; Return value:  Size  Location     Type
  4181 ;;                  1    wreg      unsigned char 
  4182 ;; Registers used:
  4183 ;;		wreg, fsr2l, fsr2h, status,2, status,0, prodl, prodh
  4184 ;; Tracked objects:
  4185 ;;		On entry : 0/0
  4186 ;;		On exit  : 0/0
  4187 ;;		Unchanged: 0/0
  4188 ;; Data sizes:     COMRAM   BANK0   BANK1   BANK2   BANK3   BANK4   BANK5   BANK6   BANK7   BANK8   BANK9  BANK10  BANK1
      +1  BANK12  BANK13  BANK14  BANK15
  4189 ;;      Params:         2       0       0       0       0       0       0       0       0       0       0       0       
      +0       0       0       0       0
  4190 ;;      Locals:         1       0       0       0       0       0       0       0       0       0       0       0       
      +0       0       0       0       0
  4191 ;;      Temps:          6       0       0       0       0       0       0       0       0       0       0       0       
      +0       0       0       0       0
  4192 ;;      Totals:         9       0       0       0       0       0       0       0       0       0       0       0       
      +0       0       0       0       0
  4193 ;;Total ram usage:        9 bytes
  4194 ;; Hardware stack levels used: 1
  4195 ;; Hardware stack levels required when called: 2
  4196 ;; This function calls:
  4197 ;;		Nothing
  4198 ;; This function is called by:
  4199 ;;		_gpio_pin_intialize
  4200 ;;		_Button_Initialize
  4201 ;;		_keypade_initialize
  4202 ;;		_Interrupt_RBx_Initialization
  4203 ;;		_Interrupt_INTx_Pin_Init
  4204 ;; This function uses a non-reentrant model
  4205 ;;
  4206                           
  4207                           	psect	text15
  4208   002250                     __ptext15:
  4209                           	callstack 0
  4210   002250                     _gpio_pin_direction_intialize:
  4211                           	callstack 26
  4212   002250                     
  4213                           ;MCAL_Layer/GPIO/hal_gpio.c: 15:  Std_ReturnType ret = (Std_ReturnType)0x01;
  4214   002250  0E01               	movlw	1
  4215   002252  6E0A               	movwf	gpio_pin_direction_intialize@ret^0,c
  4216   002254                     
  4217                           ;MCAL_Layer/GPIO/hal_gpio.c: 16:  if(pin_config == ((void*)0) || pin_config->pin > 8 -1)
      +                          {
  4218   002254  5002               	movf	gpio_pin_direction_intialize@pin_config^0,w,c
  4219   002256  1003               	iorwf	(gpio_pin_direction_intialize@pin_config+1)^0,w,c
  4220   002258  B4D8               	btfsc	status,2,c
  4221   00225A  EF31  F011         	goto	u4741
  4222   00225E  EF33  F011         	goto	u4740
  4223   002262                     u4741:
  4224   002262  EF44  F011         	goto	l5586
  4225   002266                     u4740:
  4226   002266  C002  FFD9         	movff	gpio_pin_direction_intialize@pin_config,fsr2l
  4227   00226A  C003  FFDA         	movff	gpio_pin_direction_intialize@pin_config+1,fsr2h
  4228   00226E  30DF               	rrcf	223,w,c
  4229   002270  32E8               	rrcf	wreg,f,c
  4230   002272  32E8               	rrcf	wreg,f,c
  4231   002274  0B07               	andlw	7
  4232   002276  6E04               	movwf	??_gpio_pin_direction_intialize^0,c
  4233   002278  0E07               	movlw	7
  4234   00227A  6404               	cpfsgt	??_gpio_pin_direction_intialize^0,c
  4235   00227C  EF42  F011         	goto	u4751
  4236   002280  EF44  F011         	goto	u4750
  4237   002284                     u4751:
  4238   002284  EFA7  F011         	goto	l5594
  4239   002288                     u4750:
  4240   002288                     l5586:
  4241                           
  4242                           ;MCAL_Layer/GPIO/hal_gpio.c: 17:      ret = (Std_ReturnType)0x00;
  4243   002288  0E00               	movlw	0
  4244   00228A  6E0A               	movwf	gpio_pin_direction_intialize@ret^0,c
  4245                           
  4246                           ;MCAL_Layer/GPIO/hal_gpio.c: 18:  }
  4247   00228C  EFC8  F011         	goto	l5596
  4248   002290                     l5588:
  4249                           
  4250                           ;MCAL_Layer/GPIO/hal_gpio.c: 22:            (*tris_registers[pin_config->port] &= ~(1<<p
      +                          in_config->pin));
  4251   002290  C002  FFD9         	movff	gpio_pin_direction_intialize@pin_config,fsr2l
  4252   002294  C003  FFDA         	movff	gpio_pin_direction_intialize@pin_config+1,fsr2h
  4253   002298  30DF               	rrcf	223,w,c
  4254   00229A  32E8               	rrcf	wreg,f,c
  4255   00229C  32E8               	rrcf	wreg,f,c
  4256   00229E  0B07               	andlw	7
  4257   0022A0  6E04               	movwf	??_gpio_pin_direction_intialize^0,c
  4258   0022A2  0E01               	movlw	1
  4259   0022A4  6E05               	movwf	(??_gpio_pin_direction_intialize+1)^0,c
  4260   0022A6  2A04               	incf	??_gpio_pin_direction_intialize^0,f,c
  4261   0022A8  EF58  F011         	goto	u4764
  4262   0022AC                     u4765:
  4263   0022AC  90D8               	bcf	status,0,c
  4264   0022AE  3605               	rlcf	(??_gpio_pin_direction_intialize+1)^0,f,c
  4265   0022B0                     u4764:
  4266   0022B0  2E04               	decfsz	??_gpio_pin_direction_intialize^0,f,c
  4267   0022B2  EF56  F011         	goto	u4765
  4268   0022B6  5005               	movf	(??_gpio_pin_direction_intialize+1)^0,w,c
  4269   0022B8  0AFF               	xorlw	255
  4270   0022BA  6E06               	movwf	(??_gpio_pin_direction_intialize+2)^0,c
  4271   0022BC  C002  FFD9         	movff	gpio_pin_direction_intialize@pin_config,fsr2l
  4272   0022C0  C003  FFDA         	movff	gpio_pin_direction_intialize@pin_config+1,fsr2h
  4273   0022C4  50DF               	movf	223,w,c
  4274   0022C6  0B07               	andlw	7
  4275   0022C8  6E07               	movwf	(??_gpio_pin_direction_intialize+3)^0,c
  4276   0022CA  5007               	movf	(??_gpio_pin_direction_intialize+3)^0,w,c
  4277   0022CC  0D02               	mullw	2
  4278   0022CE  0E94               	movlw	low _tris_registers
  4279   0022D0  24F3               	addwf	243,w,c
  4280   0022D2  6ED9               	movwf	fsr2l,c
  4281   0022D4  0E00               	movlw	high _tris_registers
  4282   0022D6  20F4               	addwfc	prodh,w,c
  4283   0022D8  6EDA               	movwf	fsr2h,c
  4284   0022DA  CFDE F008          	movff	postinc2,??_gpio_pin_direction_intialize+4
  4285   0022DE  CFDD F009          	movff	postdec2,??_gpio_pin_direction_intialize+5
  4286   0022E2  C008  FFD9         	movff	??_gpio_pin_direction_intialize+4,fsr2l
  4287   0022E6  C009  FFDA         	movff	??_gpio_pin_direction_intialize+5,fsr2h
  4288   0022EA  5006               	movf	(??_gpio_pin_direction_intialize+2)^0,w,c
  4289   0022EC  16DF               	andwf	indf2,f,c
  4290                           
  4291                           ;MCAL_Layer/GPIO/hal_gpio.c: 23:            break;
  4292   0022EE  EFC8  F011         	goto	l5596
  4293   0022F2                     l5590:
  4294                           
  4295                           ;MCAL_Layer/GPIO/hal_gpio.c: 25:            (*tris_registers[pin_config->port] |= (1<<pi
      +                          n_config->pin));
  4296   0022F2  C002  FFD9         	movff	gpio_pin_direction_intialize@pin_config,fsr2l
  4297   0022F6  C003  FFDA         	movff	gpio_pin_direction_intialize@pin_config+1,fsr2h
  4298   0022FA  30DF               	rrcf	223,w,c
  4299   0022FC  32E8               	rrcf	wreg,f,c
  4300   0022FE  32E8               	rrcf	wreg,f,c
  4301   002300  0B07               	andlw	7
  4302   002302  6E04               	movwf	??_gpio_pin_direction_intialize^0,c
  4303   002304  0E01               	movlw	1
  4304   002306  6E05               	movwf	(??_gpio_pin_direction_intialize+1)^0,c
  4305   002308  2A04               	incf	??_gpio_pin_direction_intialize^0,f,c
  4306   00230A  EF89  F011         	goto	u4774
  4307   00230E                     u4775:
  4308   00230E  90D8               	bcf	status,0,c
  4309   002310  3605               	rlcf	(??_gpio_pin_direction_intialize+1)^0,f,c
  4310   002312                     u4774:
  4311   002312  2E04               	decfsz	??_gpio_pin_direction_intialize^0,f,c
  4312   002314  EF87  F011         	goto	u4775
  4313   002318  C002  FFD9         	movff	gpio_pin_direction_intialize@pin_config,fsr2l
  4314   00231C  C003  FFDA         	movff	gpio_pin_direction_intialize@pin_config+1,fsr2h
  4315   002320  50DF               	movf	223,w,c
  4316   002322  0B07               	andlw	7
  4317   002324  6E06               	movwf	(??_gpio_pin_direction_intialize+2)^0,c
  4318   002326  5006               	movf	(??_gpio_pin_direction_intialize+2)^0,w,c
  4319   002328  0D02               	mullw	2
  4320   00232A  0E94               	movlw	low _tris_registers
  4321   00232C  24F3               	addwf	243,w,c
  4322   00232E  6ED9               	movwf	fsr2l,c
  4323   002330  0E00               	movlw	high _tris_registers
  4324   002332  20F4               	addwfc	prodh,w,c
  4325   002334  6EDA               	movwf	fsr2h,c
  4326   002336  CFDE F007          	movff	postinc2,??_gpio_pin_direction_intialize+3
  4327   00233A  CFDD F008          	movff	postdec2,??_gpio_pin_direction_intialize+4
  4328   00233E  C007  FFD9         	movff	??_gpio_pin_direction_intialize+3,fsr2l
  4329   002342  C008  FFDA         	movff	??_gpio_pin_direction_intialize+4,fsr2h
  4330   002346  5005               	movf	(??_gpio_pin_direction_intialize+1)^0,w,c
  4331   002348  12DF               	iorwf	indf2,f,c
  4332                           
  4333                           ;MCAL_Layer/GPIO/hal_gpio.c: 26:            break;
  4334   00234A  EFC8  F011         	goto	l5596
  4335   00234E                     l5594:
  4336   00234E  C002  FFD9         	movff	gpio_pin_direction_intialize@pin_config,fsr2l
  4337   002352  C003  FFDA         	movff	gpio_pin_direction_intialize@pin_config+1,fsr2h
  4338   002356  BCDF               	btfsc	indf2,6,c
  4339   002358  EFB0  F011         	goto	u4781
  4340   00235C  EFB3  F011         	goto	u4780
  4341   002360                     u4781:
  4342   002360  0E01               	movlw	1
  4343   002362  EFB4  F011         	goto	u4790
  4344   002366                     u4780:
  4345   002366  0E00               	movlw	0
  4346   002368                     u4790:
  4347   002368  6E04               	movwf	??_gpio_pin_direction_intialize^0,c
  4348   00236A  6A05               	clrf	(??_gpio_pin_direction_intialize+1)^0,c
  4349                           
  4350                           ; Switch on 2 bytes has been partitioned into a top level switch of size 1, and 1 sub-sw
      +                          itches
  4351                           ; Switch size 1, requested type "simple"
  4352                           ; Number of cases is 1, Range of values is 0 to 0
  4353                           ; switch strategies available:
  4354                           ; Name         Instructions Cycles
  4355                           ; simple_byte            4     3 (average)
  4356                           ;	Chosen strategy is simple_byte
  4357   00236C  5005               	movf	(??_gpio_pin_direction_intialize+1)^0,w,c
  4358   00236E  0A00               	xorlw	0	; case 0
  4359   002370  B4D8               	btfsc	status,2,c
  4360   002372  EFBD  F011         	goto	l7246
  4361   002376  EF44  F011         	goto	l5586
  4362   00237A                     l7246:
  4363                           
  4364                           ; Switch size 1, requested type "simple"
  4365                           ; Number of cases is 2, Range of values is 0 to 1
  4366                           ; switch strategies available:
  4367                           ; Name         Instructions Cycles
  4368                           ; simple_byte            7     4 (average)
  4369                           ;	Chosen strategy is simple_byte
  4370   00237A  5004               	movf	??_gpio_pin_direction_intialize^0,w,c
  4371   00237C  0A00               	xorlw	0	; case 0
  4372   00237E  B4D8               	btfsc	status,2,c
  4373   002380  EF48  F011         	goto	l5588
  4374   002384  0A01               	xorlw	1	; case 1
  4375   002386  B4D8               	btfsc	status,2,c
  4376   002388  EF79  F011         	goto	l5590
  4377   00238C  EF44  F011         	goto	l5586
  4378   002390                     l5596:
  4379                           
  4380                           ;MCAL_Layer/GPIO/hal_gpio.c: 31:       return ret;
  4381   002390  500A               	movf	gpio_pin_direction_intialize@ret^0,w,c
  4382   002392  0012               	return		;funcret
  4383   002394                     __end_of_gpio_pin_direction_intialize:
  4384                           	callstack 0
  4385                           
  4386 ;; *************** function _USART_ASYNC_WriteString_Blocking *****************
  4387 ;; Defined at:
  4388 ;;		line 117 in file "MCAL_Layer/UART/hal_uart.c"
  4389 ;; Parameters:    Size  Location     Type
  4390 ;;  data            2    2[COMRAM] PTR unsigned char 
  4391 ;;		 -> STR_8(9), STR_7(9), 
  4392 ;;  str_len         2    4[COMRAM] unsigned short 
  4393 ;; Auto vars:     Size  Location     Type
  4394 ;;  L_str_length    2    9[COMRAM] unsigned short 
  4395 ;;  ret             1    8[COMRAM] unsigned char 
  4396 ;; Return value:  Size  Location     Type
  4397 ;;                  1    wreg      unsigned char 
  4398 ;; Registers used:
  4399 ;;		wreg, status,2, status,0, tblptrl, tblptrh, tblptru, cstack
  4400 ;; Tracked objects:
  4401 ;;		On entry : 0/0
  4402 ;;		On exit  : 0/0
  4403 ;;		Unchanged: 0/0
  4404 ;; Data sizes:     COMRAM   BANK0   BANK1   BANK2   BANK3   BANK4   BANK5   BANK6   BANK7   BANK8   BANK9  BANK10  BANK1
      +1  BANK12  BANK13  BANK14  BANK15
  4405 ;;      Params:         4       0       0       0       0       0       0       0       0       0       0       0       
      +0       0       0       0       0
  4406 ;;      Locals:         3       0       0       0       0       0       0       0       0       0       0       0       
      +0       0       0       0       0
  4407 ;;      Temps:          2       0       0       0       0       0       0       0       0       0       0       0       
      +0       0       0       0       0
  4408 ;;      Totals:         9       0       0       0       0       0       0       0       0       0       0       0       
      +0       0       0       0       0
  4409 ;;Total ram usage:        9 bytes
  4410 ;; Hardware stack levels used: 1
  4411 ;; Hardware stack levels required when called: 3
  4412 ;; This function calls:
  4413 ;;		_USART_ASYNC_WriteByte_Blocking
  4414 ;; This function is called by:
  4415 ;;		_main
  4416 ;; This function uses a non-reentrant model
  4417 ;;
  4418                           
  4419                           	psect	text16
  4420   002AA4                     __ptext16:
  4421                           	callstack 0
  4422   002AA4                     _USART_ASYNC_WriteString_Blocking:
  4423                           	callstack 27
  4424   002AA4                     
  4425                           ;MCAL_Layer/UART/hal_uart.c: 118:     Std_ReturnType ret = (Std_ReturnType)0x01;
  4426   002AA4  0E01               	movlw	1
  4427   002AA6  6E09               	movwf	USART_ASYNC_WriteString_Blocking@ret^0,c
  4428                           
  4429                           ;MCAL_Layer/UART/hal_uart.c: 119:     uint_16 L_str_length = 0;
  4430   002AA8  0E00               	movlw	0
  4431   002AAA  6E0B               	movwf	(USART_ASYNC_WriteString_Blocking@L_str_length+1)^0,c
  4432   002AAC  0E00               	movlw	0
  4433   002AAE  6E0A               	movwf	USART_ASYNC_WriteString_Blocking@L_str_length^0,c
  4434                           
  4435                           ;MCAL_Layer/UART/hal_uart.c: 120:         for(L_str_length = 0 ; L_str_length < str_len 
      +                          ; L_str_length++){
  4436   002AB0  0E00               	movlw	0
  4437   002AB2  6E0B               	movwf	(USART_ASYNC_WriteString_Blocking@L_str_length+1)^0,c
  4438   002AB4  0E00               	movlw	0
  4439   002AB6  6E0A               	movwf	USART_ASYNC_WriteString_Blocking@L_str_length^0,c
  4440   002AB8  EF70  F015         	goto	l6020
  4441   002ABC                     l6016:
  4442                           
  4443                           ;MCAL_Layer/UART/hal_uart.c: 121:             ret = USART_ASYNC_WriteByte_Blocking(data[
      +                          L_str_length]);
  4444   002ABC  500A               	movf	USART_ASYNC_WriteString_Blocking@L_str_length^0,w,c
  4445   002ABE  2403               	addwf	USART_ASYNC_WriteString_Blocking@data^0,w,c
  4446   002AC0  6E07               	movwf	??_USART_ASYNC_WriteString_Blocking^0,c
  4447   002AC2  500B               	movf	(USART_ASYNC_WriteString_Blocking@L_str_length+1)^0,w,c
  4448   002AC4  2004               	addwfc	(USART_ASYNC_WriteString_Blocking@data+1)^0,w,c
  4449   002AC6  6E08               	movwf	(??_USART_ASYNC_WriteString_Blocking+1)^0,c
  4450   002AC8  C007  FFF6         	movff	??_USART_ASYNC_WriteString_Blocking,tblptrl
  4451   002ACC  C008  FFF7         	movff	??_USART_ASYNC_WriteString_Blocking+1,tblptrh
  4452   002AD0                     	if	1	;Program memory is < 0x10000, tblptru is always zero
  4453   002AD0  6AF8               	clrf	tblptru,c
  4454   002AD2                     	endif
  4455   002AD2                     	if	0	;tblptru may be non-zero
  4456   002AD2                     	endif
  4457   002AD2  0008               	tblrd		*
  4458   002AD4  50F5               	movf	tablat,w,c
  4459   002AD6  EC10  F016         	call	_USART_ASYNC_WriteByte_Blocking
  4460   002ADA  6E09               	movwf	USART_ASYNC_WriteString_Blocking@ret^0,c
  4461   002ADC                     
  4462                           ;MCAL_Layer/UART/hal_uart.c: 122:         }
  4463   002ADC  4A0A               	infsnz	USART_ASYNC_WriteString_Blocking@L_str_length^0,f,c
  4464   002ADE  2A0B               	incf	(USART_ASYNC_WriteString_Blocking@L_str_length+1)^0,f,c
  4465   002AE0                     l6020:
  4466   002AE0  5005               	movf	USART_ASYNC_WriteString_Blocking@str_len^0,w,c
  4467   002AE2  5C0A               	subwf	USART_ASYNC_WriteString_Blocking@L_str_length^0,w,c
  4468   002AE4  5006               	movf	(USART_ASYNC_WriteString_Blocking@str_len+1)^0,w,c
  4469   002AE6  580B               	subwfb	(USART_ASYNC_WriteString_Blocking@L_str_length+1)^0,w,c
  4470   002AE8  A0D8               	btfss	status,0,c
  4471   002AEA  EF79  F015         	goto	u5151
  4472   002AEE  EF7B  F015         	goto	u5150
  4473   002AF2                     u5151:
  4474   002AF2  EF5E  F015         	goto	l6016
  4475   002AF6                     u5150:
  4476   002AF6                     
  4477                           ;MCAL_Layer/UART/hal_uart.c: 123:         return ret;
  4478   002AF6  5009               	movf	USART_ASYNC_WriteString_Blocking@ret^0,w,c
  4479   002AF8  0012               	return		;funcret
  4480   002AFA                     __end_of_USART_ASYNC_WriteString_Blocking:
  4481                           	callstack 0
  4482                           
  4483 ;; *************** function _USART_ASYNC_WriteByte_Blocking *****************
  4484 ;; Defined at:
  4485 ;;		line 83 in file "MCAL_Layer/UART/hal_uart.c"
  4486 ;; Parameters:    Size  Location     Type
  4487 ;;  data            1    wreg     unsigned char 
  4488 ;; Auto vars:     Size  Location     Type
  4489 ;;  data            1    1[COMRAM] unsigned char 
  4490 ;;  ret             1    0        unsigned char 
  4491 ;; Return value:  Size  Location     Type
  4492 ;;                  1    wreg      unsigned char 
  4493 ;; Registers used:
  4494 ;;		wreg, status,2
  4495 ;; Tracked objects:
  4496 ;;		On entry : 0/0
  4497 ;;		On exit  : 0/0
  4498 ;;		Unchanged: 0/0
  4499 ;; Data sizes:     COMRAM   BANK0   BANK1   BANK2   BANK3   BANK4   BANK5   BANK6   BANK7   BANK8   BANK9  BANK10  BANK1
      +1  BANK12  BANK13  BANK14  BANK15
  4500 ;;      Params:         0       0       0       0       0       0       0       0       0       0       0       0       
      +0       0       0       0       0
  4501 ;;      Locals:         1       0       0       0       0       0       0       0       0       0       0       0       
      +0       0       0       0       0
  4502 ;;      Temps:          0       0       0       0       0       0       0       0       0       0       0       0       
      +0       0       0       0       0
  4503 ;;      Totals:         1       0       0       0       0       0       0       0       0       0       0       0       
      +0       0       0       0       0
  4504 ;;Total ram usage:        1 bytes
  4505 ;; Hardware stack levels used: 1
  4506 ;; Hardware stack levels required when called: 2
  4507 ;; This function calls:
  4508 ;;		Nothing
  4509 ;; This function is called by:
  4510 ;;		_USART_ASYNC_WriteString_Blocking
  4511 ;;		_USART_ASYNC_WriteString_Non_Blocking
  4512 ;; This function uses a non-reentrant model
  4513 ;;
  4514                           
  4515                           	psect	text17
  4516   002C20                     __ptext17:
  4517                           	callstack 0
  4518   002C20                     _USART_ASYNC_WriteByte_Blocking:
  4519                           	callstack 27
  4520                           
  4521                           ;incstack = 0
  4522                           ;USART_ASYNC_WriteByte_Blocking@data stored from wreg
  4523   002C20  6E02               	movwf	USART_ASYNC_WriteByte_Blocking@data^0,c
  4524   002C22                     l1441:
  4525   002C22  A2AC               	btfss	172,1,c	;volatile
  4526   002C24  EF16  F016         	goto	u1081
  4527   002C28  EF18  F016         	goto	u1080
  4528   002C2C                     u1081:
  4529   002C2C  EF11  F016         	goto	l1441
  4530   002C30                     u1080:
  4531   002C30                     
  4532                           ;MCAL_Layer/UART/hal_uart.c: 87:         (PIE1bits.TXIE = 1);
  4533   002C30  889D               	bsf	157,4,c	;volatile
  4534   002C32                     
  4535                           ;MCAL_Layer/UART/hal_uart.c: 89:     TXREG = data;
  4536   002C32  C002  FFAD         	movff	USART_ASYNC_WriteByte_Blocking@data,4013	;volatile
  4537   002C36                     
  4538                           ;MCAL_Layer/UART/hal_uart.c: 90:     return ret;
  4539   002C36  0E01               	movlw	1
  4540   002C38  0012               	return		;funcret
  4541   002C3A                     __end_of_USART_ASYNC_WriteByte_Blocking:
  4542                           	callstack 0
  4543                           
  4544 ;; *************** function _USART_ASYNC_ReadByte_Non_Blocking *****************
  4545 ;; Defined at:
  4546 ;;		line 62 in file "MCAL_Layer/UART/hal_uart.c"
  4547 ;; Parameters:    Size  Location     Type
  4548 ;;  data            2    1[COMRAM] PTR unsigned char 
  4549 ;;		 -> rec_usart(1), 
  4550 ;; Auto vars:     Size  Location     Type
  4551 ;;  ret             1    3[COMRAM] unsigned char 
  4552 ;; Return value:  Size  Location     Type
  4553 ;;                  1    wreg      unsigned char 
  4554 ;; Registers used:
  4555 ;;		wreg, fsr2l, fsr2h, status,2
  4556 ;; Tracked objects:
  4557 ;;		On entry : 0/0
  4558 ;;		On exit  : 0/0
  4559 ;;		Unchanged: 0/0
  4560 ;; Data sizes:     COMRAM   BANK0   BANK1   BANK2   BANK3   BANK4   BANK5   BANK6   BANK7   BANK8   BANK9  BANK10  BANK1
      +1  BANK12  BANK13  BANK14  BANK15
  4561 ;;      Params:         2       0       0       0       0       0       0       0       0       0       0       0       
      +0       0       0       0       0
  4562 ;;      Locals:         1       0       0       0       0       0       0       0       0       0       0       0       
      +0       0       0       0       0
  4563 ;;      Temps:          0       0       0       0       0       0       0       0       0       0       0       0       
      +0       0       0       0       0
  4564 ;;      Totals:         3       0       0       0       0       0       0       0       0       0       0       0       
      +0       0       0       0       0
  4565 ;;Total ram usage:        3 bytes
  4566 ;; Hardware stack levels used: 1
  4567 ;; Hardware stack levels required when called: 2
  4568 ;; This function calls:
  4569 ;;		Nothing
  4570 ;; This function is called by:
  4571 ;;		_main
  4572 ;; This function uses a non-reentrant model
  4573 ;;
  4574                           
  4575                           	psect	text18
  4576   002BF6                     __ptext18:
  4577                           	callstack 0
  4578   002BF6                     _USART_ASYNC_ReadByte_Non_Blocking:
  4579                           	callstack 28
  4580   002BF6                     
  4581                           ;MCAL_Layer/UART/hal_uart.c: 64:     if(PIR1bits.RCIF == 1){
  4582   002BF6  AA9E               	btfss	158,5,c	;volatile
  4583   002BF8  EF00  F016         	goto	u5141
  4584   002BFC  EF02  F016         	goto	u5140
  4585   002C00                     u5141:
  4586   002C00  EF0C  F016         	goto	l6010
  4587   002C04                     u5140:
  4588   002C04                     
  4589                           ;MCAL_Layer/UART/hal_uart.c: 65:         *data = RCREG;
  4590   002C04  C002  FFD9         	movff	USART_ASYNC_ReadByte_Non_Blocking@data,fsr2l
  4591   002C08  C003  FFDA         	movff	USART_ASYNC_ReadByte_Non_Blocking@data+1,fsr2h
  4592   002C0C  CFAE FFDF          	movff	4014,indf2	;volatile
  4593   002C10                     
  4594                           ;MCAL_Layer/UART/hal_uart.c: 66:         ret = (Std_ReturnType)0x01;
  4595   002C10  0E01               	movlw	1
  4596   002C12  6E04               	movwf	USART_ASYNC_ReadByte_Non_Blocking@ret^0,c
  4597                           
  4598                           ;MCAL_Layer/UART/hal_uart.c: 67:     }
  4599   002C14  EF0E  F016         	goto	l1434
  4600   002C18                     l6010:
  4601                           
  4602                           ;MCAL_Layer/UART/hal_uart.c: 69:         ret = (Std_ReturnType)0x00;
  4603   002C18  0E00               	movlw	0
  4604   002C1A  6E04               	movwf	USART_ASYNC_ReadByte_Non_Blocking@ret^0,c
  4605   002C1C                     l1434:
  4606                           
  4607                           ;MCAL_Layer/UART/hal_uart.c: 71:     return ret;
  4608   002C1C  5004               	movf	USART_ASYNC_ReadByte_Non_Blocking@ret^0,w,c
  4609   002C1E  0012               	return		;funcret
  4610   002C20                     __end_of_USART_ASYNC_ReadByte_Non_Blocking:
  4611                           	callstack 0
  4612                           
  4613 ;; *************** function _Interrupt_Manager *****************
  4614 ;; Defined at:
  4615 ;;		line 30 in file "MCAL_Layer/interrupt/mcal_interrupt_manager.c"
  4616 ;; Parameters:    Size  Location     Type
  4617 ;;		None
  4618 ;; Auto vars:     Size  Location     Type
  4619 ;;		None
  4620 ;; Return value:  Size  Location     Type
  4621 ;;                  1    wreg      void 
  4622 ;; Registers used:
  4623 ;;		wreg, status,2, status,0, cstack
  4624 ;; Tracked objects:
  4625 ;;		On entry : 0/0
  4626 ;;		On exit  : 0/0
  4627 ;;		Unchanged: 0/0
  4628 ;; Data sizes:     COMRAM   BANK0   BANK1   BANK2   BANK3   BANK4   BANK5   BANK6   BANK7   BANK8   BANK9  BANK10  BANK1
      +1  BANK12  BANK13  BANK14  BANK15
  4629 ;;      Params:         0       0       0       0       0       0       0       0       0       0       0       0       
      +0       0       0       0       0
  4630 ;;      Locals:         0       0       0       0       0       0       0       0       0       0       0       0       
      +0       0       0       0       0
  4631 ;;      Temps:          0       0       0       0       0       0       0       0       0       0       0       0       
      +0       0       0       0       0
  4632 ;;      Totals:         0       0       0       0       0       0       0       0       0       0       0       0       
      +0       0       0       0       0
  4633 ;;Total ram usage:        0 bytes
  4634 ;; Hardware stack levels used: 1
  4635 ;; Hardware stack levels required when called: 1
  4636 ;; This function calls:
  4637 ;;		_ADC_ISR
  4638 ;;		_CCP1_ISR
  4639 ;;		_CCP2_ISR
  4640 ;;		_EUSART_RX_ISR
  4641 ;;		_EUSART_TX_ISR
  4642 ;;		_INT0_ISR
  4643 ;;		_INT1_ISR
  4644 ;;		_INT2_ISR
  4645 ;;		_RB4_ISR
  4646 ;;		_RB5_ISR
  4647 ;;		_RB6_ISR
  4648 ;;		_RB7_ISR
  4649 ;;		_TIMER0_ISR
  4650 ;;		_TIMER1_ISR
  4651 ;;		_TIMER2_ISR
  4652 ;;		_TIMER3_ISR
  4653 ;; This function is called by:
  4654 ;;		Interrupt level 2
  4655 ;; This function uses a non-reentrant model
  4656 ;;
  4657                           
  4658                           	psect	intcode
  4659   000008                     __pintcode:
  4660                           	callstack 0
  4661   000008                     _Interrupt_Manager:
  4662                           	callstack 25
  4663                           
  4664                           ;incstack = 0
  4665   000008  827D               	bsf	int$flags,1,c	;set compiler interrupt flag (level 2)
  4666   00000A  EDAE  F00C         	call	int_func,f	;refresh shadow registers
  4667                           
  4668                           	psect	intcode_body
  4669   00195C                     __pintcode_body:
  4670                           	callstack 25
  4671   00195C                     int_func:
  4672                           	callstack 25
  4673   00195C  0006               	pop		; remove dummy address from shadow register refresh
  4674   00195E                     
  4675                           ;MCAL_Layer/interrupt/mcal_interrupt_manager.c: 31:     if((INTCONbits.INT0IE ==1) && (I
      +                          NTCONbits.INT0IF==1)){
  4676   00195E  A8F2               	btfss	242,4,c	;volatile
  4677   001960  EFB4  F00C         	goto	i2u609_41
  4678   001964  EFB6  F00C         	goto	i2u609_40
  4679   001968                     i2u609_41:
  4680   001968  EFBF  F00C         	goto	i2l1085
  4681   00196C                     i2u609_40:
  4682   00196C  A2F2               	btfss	242,1,c	;volatile
  4683   00196E  EFBB  F00C         	goto	i2u610_41
  4684   001972  EFBD  F00C         	goto	i2u610_40
  4685   001976                     i2u610_41:
  4686   001976  EFBF  F00C         	goto	i2l1085
  4687   00197A                     i2u610_40:
  4688   00197A                     
  4689                           ;MCAL_Layer/interrupt/mcal_interrupt_manager.c: 32:     INT0_ISR();
  4690   00197A  EC6E  F016         	call	_INT0_ISR	;wreg free
  4691   00197E                     i2l1085:
  4692                           
  4693                           ;MCAL_Layer/interrupt/mcal_interrupt_manager.c: 35:     if((INTCON3bits.INT1E ==1) && (I
      +                          NTCON3bits.INT1F ==1)){
  4694   00197E  A6F0               	btfss	240,3,c	;volatile
  4695   001980  EFC4  F00C         	goto	i2u611_41
  4696   001984  EFC6  F00C         	goto	i2u611_40
  4697   001988                     i2u611_41:
  4698   001988  EFCF  F00C         	goto	i2l1087
  4699   00198C                     i2u611_40:
  4700   00198C  A0F0               	btfss	240,0,c	;volatile
  4701   00198E  EFCB  F00C         	goto	i2u612_41
  4702   001992  EFCD  F00C         	goto	i2u612_40
  4703   001996                     i2u612_41:
  4704   001996  EFCF  F00C         	goto	i2l1087
  4705   00199A                     i2u612_40:
  4706   00199A                     
  4707                           ;MCAL_Layer/interrupt/mcal_interrupt_manager.c: 36:     INT1_ISR();
  4708   00199A  EC6C  F016         	call	_INT1_ISR	;wreg free
  4709   00199E                     i2l1087:
  4710                           
  4711                           ;MCAL_Layer/interrupt/mcal_interrupt_manager.c: 39:     if((INTCON3bits.INT2E ==1) && (I
      +                          NTCON3bits.INT2F ==1)){
  4712   00199E  A8F0               	btfss	240,4,c	;volatile
  4713   0019A0  EFD4  F00C         	goto	i2u613_41
  4714   0019A4  EFD6  F00C         	goto	i2u613_40
  4715   0019A8                     i2u613_41:
  4716   0019A8  EFDF  F00C         	goto	i2l1089
  4717   0019AC                     i2u613_40:
  4718   0019AC  A2F0               	btfss	240,1,c	;volatile
  4719   0019AE  EFDB  F00C         	goto	i2u614_41
  4720   0019B2  EFDD  F00C         	goto	i2u614_40
  4721   0019B6                     i2u614_41:
  4722   0019B6  EFDF  F00C         	goto	i2l1089
  4723   0019BA                     i2u614_40:
  4724   0019BA                     
  4725                           ;MCAL_Layer/interrupt/mcal_interrupt_manager.c: 40:     INT2_ISR();
  4726   0019BA  EC6A  F016         	call	_INT2_ISR	;wreg free
  4727   0019BE                     i2l1089:
  4728                           
  4729                           ;MCAL_Layer/interrupt/mcal_interrupt_manager.c: 43:     if((INTCONbits.RBIE ==1) && (INT
      +                          CONbits.RBIF ==1) &&
  4730   0019BE  A6F2               	btfss	242,3,c	;volatile
  4731   0019C0  EFE4  F00C         	goto	i2u615_41
  4732   0019C4  EFE6  F00C         	goto	i2u615_40
  4733   0019C8                     i2u615_41:
  4734   0019C8  EF01  F00D         	goto	i2l1091
  4735   0019CC                     i2u615_40:
  4736   0019CC  A0F2               	btfss	242,0,c	;volatile
  4737   0019CE  EFEB  F00C         	goto	i2u616_41
  4738   0019D2  EFED  F00C         	goto	i2u616_40
  4739   0019D6                     i2u616_41:
  4740   0019D6  EF01  F00D         	goto	i2l1091
  4741   0019DA                     i2u616_40:
  4742   0019DA  A881               	btfss	129,4,c	;volatile
  4743   0019DC  EFF2  F00C         	goto	i2u617_41
  4744   0019E0  EFF4  F00C         	goto	i2u617_40
  4745   0019E4                     i2u617_41:
  4746   0019E4  EF01  F00D         	goto	i2l1091
  4747   0019E8                     i2u617_40:
  4748   0019E8  047A               	decf	_RB4_Flag^0,w,c	;volatile
  4749   0019EA  A4D8               	btfss	status,2,c
  4750   0019EC  EFFA  F00C         	goto	i2u618_41
  4751   0019F0  EFFC  F00C         	goto	i2u618_40
  4752   0019F4                     i2u618_41:
  4753   0019F4  EF01  F00D         	goto	i2l1091
  4754   0019F8                     i2u618_40:
  4755   0019F8                     
  4756                           ;MCAL_Layer/interrupt/mcal_interrupt_manager.c: 44:         (PORTBbits.RB4 == HIGH)&& (R
      +                          B4_Flag== 1)){;MCAL_Layer/interrupt/mcal_interrupt_manager.c: 45:         RB4_Flag = 0;
  4757   0019F8  0E00               	movlw	0
  4758   0019FA  6E7A               	movwf	_RB4_Flag^0,c	;volatile
  4759   0019FC                     
  4760                           ;MCAL_Layer/interrupt/mcal_interrupt_manager.c: 46:         RB4_ISR(1);
  4761   0019FC  0E01               	movlw	1
  4762   0019FE  EC44  F016         	call	_RB4_ISR
  4763   001A02                     i2l1091:
  4764                           
  4765                           ;MCAL_Layer/interrupt/mcal_interrupt_manager.c: 49:     if((INTCONbits.RBIE ==1) && (INT
      +                          CONbits.RBIF ==1)&&
  4766   001A02  A6F2               	btfss	242,3,c	;volatile
  4767   001A04  EF06  F00D         	goto	i2u619_41
  4768   001A08  EF08  F00D         	goto	i2u619_40
  4769   001A0C                     i2u619_41:
  4770   001A0C  EF23  F00D         	goto	i2l1093
  4771   001A10                     i2u619_40:
  4772   001A10  A0F2               	btfss	242,0,c	;volatile
  4773   001A12  EF0D  F00D         	goto	i2u620_41
  4774   001A16  EF0F  F00D         	goto	i2u620_40
  4775   001A1A                     i2u620_41:
  4776   001A1A  EF23  F00D         	goto	i2l1093
  4777   001A1E                     i2u620_40:
  4778   001A1E  B881               	btfsc	129,4,c	;volatile
  4779   001A20  EF14  F00D         	goto	i2u621_41
  4780   001A24  EF16  F00D         	goto	i2u621_40
  4781   001A28                     i2u621_41:
  4782   001A28  EF23  F00D         	goto	i2l1093
  4783   001A2C                     i2u621_40:
  4784   001A2C  507A               	movf	_RB4_Flag^0,w,c	;volatile
  4785   001A2E  A4D8               	btfss	status,2,c
  4786   001A30  EF1C  F00D         	goto	i2u622_41
  4787   001A34  EF1E  F00D         	goto	i2u622_40
  4788   001A38                     i2u622_41:
  4789   001A38  EF23  F00D         	goto	i2l1093
  4790   001A3C                     i2u622_40:
  4791   001A3C                     
  4792                           ;MCAL_Layer/interrupt/mcal_interrupt_manager.c: 50:        (PORTBbits.RB4 == LOW)&& (RB4
      +                          _Flag== 0)){;MCAL_Layer/interrupt/mcal_interrupt_manager.c: 51:         RB4_Flag = 1;
  4793   001A3C  0E01               	movlw	1
  4794   001A3E  6E7A               	movwf	_RB4_Flag^0,c	;volatile
  4795   001A40                     
  4796                           ;MCAL_Layer/interrupt/mcal_interrupt_manager.c: 52:         RB4_ISR(0);
  4797   001A40  0E00               	movlw	0
  4798   001A42  EC44  F016         	call	_RB4_ISR
  4799   001A46                     i2l1093:
  4800                           
  4801                           ;MCAL_Layer/interrupt/mcal_interrupt_manager.c: 55:     if((INTCONbits.RBIE ==1) && (INT
      +                          CONbits.RBIF ==1) &&
  4802   001A46  A6F2               	btfss	242,3,c	;volatile
  4803   001A48  EF28  F00D         	goto	i2u623_41
  4804   001A4C  EF2A  F00D         	goto	i2u623_40
  4805   001A50                     i2u623_41:
  4806   001A50  EF45  F00D         	goto	i2l1095
  4807   001A54                     i2u623_40:
  4808   001A54  A0F2               	btfss	242,0,c	;volatile
  4809   001A56  EF2F  F00D         	goto	i2u624_41
  4810   001A5A  EF31  F00D         	goto	i2u624_40
  4811   001A5E                     i2u624_41:
  4812   001A5E  EF45  F00D         	goto	i2l1095
  4813   001A62                     i2u624_40:
  4814   001A62  AA81               	btfss	129,5,c	;volatile
  4815   001A64  EF36  F00D         	goto	i2u625_41
  4816   001A68  EF38  F00D         	goto	i2u625_40
  4817   001A6C                     i2u625_41:
  4818   001A6C  EF45  F00D         	goto	i2l1095
  4819   001A70                     i2u625_40:
  4820   001A70  0479               	decf	_RB5_Flag^0,w,c	;volatile
  4821   001A72  A4D8               	btfss	status,2,c
  4822   001A74  EF3E  F00D         	goto	i2u626_41
  4823   001A78  EF40  F00D         	goto	i2u626_40
  4824   001A7C                     i2u626_41:
  4825   001A7C  EF45  F00D         	goto	i2l1095
  4826   001A80                     i2u626_40:
  4827   001A80                     
  4828                           ;MCAL_Layer/interrupt/mcal_interrupt_manager.c: 56:         (PORTBbits.RB5 == HIGH)&& (R
      +                          B5_Flag== 1)){;MCAL_Layer/interrupt/mcal_interrupt_manager.c: 57:           RB5_Flag = 0
      +                          ;
  4829   001A80  0E00               	movlw	0
  4830   001A82  6E79               	movwf	_RB5_Flag^0,c	;volatile
  4831   001A84                     
  4832                           ;MCAL_Layer/interrupt/mcal_interrupt_manager.c: 58:           RB5_ISR(1);
  4833   001A84  0E01               	movlw	1
  4834   001A86  EC37  F016         	call	_RB5_ISR
  4835   001A8A                     i2l1095:
  4836                           
  4837                           ;MCAL_Layer/interrupt/mcal_interrupt_manager.c: 61:     if((INTCONbits.RBIE ==1) && (INT
      +                          CONbits.RBIF ==1)&&
  4838   001A8A  A6F2               	btfss	242,3,c	;volatile
  4839   001A8C  EF4A  F00D         	goto	i2u627_41
  4840   001A90  EF4C  F00D         	goto	i2u627_40
  4841   001A94                     i2u627_41:
  4842   001A94  EF67  F00D         	goto	i2l1097
  4843   001A98                     i2u627_40:
  4844   001A98  A0F2               	btfss	242,0,c	;volatile
  4845   001A9A  EF51  F00D         	goto	i2u628_41
  4846   001A9E  EF53  F00D         	goto	i2u628_40
  4847   001AA2                     i2u628_41:
  4848   001AA2  EF67  F00D         	goto	i2l1097
  4849   001AA6                     i2u628_40:
  4850   001AA6  BA81               	btfsc	129,5,c	;volatile
  4851   001AA8  EF58  F00D         	goto	i2u629_41
  4852   001AAC  EF5A  F00D         	goto	i2u629_40
  4853   001AB0                     i2u629_41:
  4854   001AB0  EF67  F00D         	goto	i2l1097
  4855   001AB4                     i2u629_40:
  4856   001AB4  5079               	movf	_RB5_Flag^0,w,c	;volatile
  4857   001AB6  A4D8               	btfss	status,2,c
  4858   001AB8  EF60  F00D         	goto	i2u630_41
  4859   001ABC  EF62  F00D         	goto	i2u630_40
  4860   001AC0                     i2u630_41:
  4861   001AC0  EF67  F00D         	goto	i2l1097
  4862   001AC4                     i2u630_40:
  4863   001AC4                     
  4864                           ;MCAL_Layer/interrupt/mcal_interrupt_manager.c: 62:         (PORTBbits.RB5 == LOW)&& (RB
      +                          5_Flag== 0)){;MCAL_Layer/interrupt/mcal_interrupt_manager.c: 63:           RB5_Flag = 1;
  4865   001AC4  0E01               	movlw	1
  4866   001AC6  6E79               	movwf	_RB5_Flag^0,c	;volatile
  4867   001AC8                     
  4868                           ;MCAL_Layer/interrupt/mcal_interrupt_manager.c: 64:           RB5_ISR(0);
  4869   001AC8  0E00               	movlw	0
  4870   001ACA  EC37  F016         	call	_RB5_ISR
  4871   001ACE                     i2l1097:
  4872                           
  4873                           ;MCAL_Layer/interrupt/mcal_interrupt_manager.c: 67:     if((INTCONbits.RBIE ==1) && (INT
      +                          CONbits.RBIF ==1) &&
  4874   001ACE  A6F2               	btfss	242,3,c	;volatile
  4875   001AD0  EF6C  F00D         	goto	i2u631_41
  4876   001AD4  EF6E  F00D         	goto	i2u631_40
  4877   001AD8                     i2u631_41:
  4878   001AD8  EF89  F00D         	goto	i2l1099
  4879   001ADC                     i2u631_40:
  4880   001ADC  A0F2               	btfss	242,0,c	;volatile
  4881   001ADE  EF73  F00D         	goto	i2u632_41
  4882   001AE2  EF75  F00D         	goto	i2u632_40
  4883   001AE6                     i2u632_41:
  4884   001AE6  EF89  F00D         	goto	i2l1099
  4885   001AEA                     i2u632_40:
  4886   001AEA  AC81               	btfss	129,6,c	;volatile
  4887   001AEC  EF7A  F00D         	goto	i2u633_41
  4888   001AF0  EF7C  F00D         	goto	i2u633_40
  4889   001AF4                     i2u633_41:
  4890   001AF4  EF89  F00D         	goto	i2l1099
  4891   001AF8                     i2u633_40:
  4892   001AF8  0478               	decf	_RB6_Flag^0,w,c	;volatile
  4893   001AFA  A4D8               	btfss	status,2,c
  4894   001AFC  EF82  F00D         	goto	i2u634_41
  4895   001B00  EF84  F00D         	goto	i2u634_40
  4896   001B04                     i2u634_41:
  4897   001B04  EF89  F00D         	goto	i2l1099
  4898   001B08                     i2u634_40:
  4899   001B08                     
  4900                           ;MCAL_Layer/interrupt/mcal_interrupt_manager.c: 68:        (PORTBbits.RB6 == HIGH)&& (RB
      +                          6_Flag== 1)){;MCAL_Layer/interrupt/mcal_interrupt_manager.c: 69:           RB6_Flag = 0;
  4901   001B08  0E00               	movlw	0
  4902   001B0A  6E78               	movwf	_RB6_Flag^0,c	;volatile
  4903   001B0C                     
  4904                           ;MCAL_Layer/interrupt/mcal_interrupt_manager.c: 70:           RB6_ISR(1);
  4905   001B0C  0E01               	movlw	1
  4906   001B0E  EC2A  F016         	call	_RB6_ISR
  4907   001B12                     i2l1099:
  4908                           
  4909                           ;MCAL_Layer/interrupt/mcal_interrupt_manager.c: 73:     if((INTCONbits.RBIE ==1) && (INT
      +                          CONbits.RBIF ==1)&&
  4910   001B12  A6F2               	btfss	242,3,c	;volatile
  4911   001B14  EF8E  F00D         	goto	i2u635_41
  4912   001B18  EF90  F00D         	goto	i2u635_40
  4913   001B1C                     i2u635_41:
  4914   001B1C  EFAB  F00D         	goto	i2l1101
  4915   001B20                     i2u635_40:
  4916   001B20  A0F2               	btfss	242,0,c	;volatile
  4917   001B22  EF95  F00D         	goto	i2u636_41
  4918   001B26  EF97  F00D         	goto	i2u636_40
  4919   001B2A                     i2u636_41:
  4920   001B2A  EFAB  F00D         	goto	i2l1101
  4921   001B2E                     i2u636_40:
  4922   001B2E  BC81               	btfsc	129,6,c	;volatile
  4923   001B30  EF9C  F00D         	goto	i2u637_41
  4924   001B34  EF9E  F00D         	goto	i2u637_40
  4925   001B38                     i2u637_41:
  4926   001B38  EFAB  F00D         	goto	i2l1101
  4927   001B3C                     i2u637_40:
  4928   001B3C  5078               	movf	_RB6_Flag^0,w,c	;volatile
  4929   001B3E  A4D8               	btfss	status,2,c
  4930   001B40  EFA4  F00D         	goto	i2u638_41
  4931   001B44  EFA6  F00D         	goto	i2u638_40
  4932   001B48                     i2u638_41:
  4933   001B48  EFAB  F00D         	goto	i2l1101
  4934   001B4C                     i2u638_40:
  4935   001B4C                     
  4936                           ;MCAL_Layer/interrupt/mcal_interrupt_manager.c: 74:         (PORTBbits.RB6 == LOW)&& (RB
      +                          6_Flag== 0)){;MCAL_Layer/interrupt/mcal_interrupt_manager.c: 75:           RB6_Flag = 1;
  4937   001B4C  0E01               	movlw	1
  4938   001B4E  6E78               	movwf	_RB6_Flag^0,c	;volatile
  4939   001B50                     
  4940                           ;MCAL_Layer/interrupt/mcal_interrupt_manager.c: 76:           RB6_ISR(0);
  4941   001B50  0E00               	movlw	0
  4942   001B52  EC2A  F016         	call	_RB6_ISR
  4943   001B56                     i2l1101:
  4944                           
  4945                           ;MCAL_Layer/interrupt/mcal_interrupt_manager.c: 79:     if((INTCONbits.RBIE ==1) && (INT
      +                          CONbits.RBIF ==1) &&
  4946   001B56  A6F2               	btfss	242,3,c	;volatile
  4947   001B58  EFB0  F00D         	goto	i2u639_41
  4948   001B5C  EFB2  F00D         	goto	i2u639_40
  4949   001B60                     i2u639_41:
  4950   001B60  EFCD  F00D         	goto	i2l1103
  4951   001B64                     i2u639_40:
  4952   001B64  A0F2               	btfss	242,0,c	;volatile
  4953   001B66  EFB7  F00D         	goto	i2u640_41
  4954   001B6A  EFB9  F00D         	goto	i2u640_40
  4955   001B6E                     i2u640_41:
  4956   001B6E  EFCD  F00D         	goto	i2l1103
  4957   001B72                     i2u640_40:
  4958   001B72  AE81               	btfss	129,7,c	;volatile
  4959   001B74  EFBE  F00D         	goto	i2u641_41
  4960   001B78  EFC0  F00D         	goto	i2u641_40
  4961   001B7C                     i2u641_41:
  4962   001B7C  EFCD  F00D         	goto	i2l1103
  4963   001B80                     i2u641_40:
  4964   001B80  0477               	decf	_RB7_Flag^0,w,c	;volatile
  4965   001B82  A4D8               	btfss	status,2,c
  4966   001B84  EFC6  F00D         	goto	i2u642_41
  4967   001B88  EFC8  F00D         	goto	i2u642_40
  4968   001B8C                     i2u642_41:
  4969   001B8C  EFCD  F00D         	goto	i2l1103
  4970   001B90                     i2u642_40:
  4971   001B90                     
  4972                           ;MCAL_Layer/interrupt/mcal_interrupt_manager.c: 80:         (PORTBbits.RB7 == HIGH)&& (R
      +                          B7_Flag== 1)){;MCAL_Layer/interrupt/mcal_interrupt_manager.c: 81:           RB7_Flag = 0
      +                          ;
  4973   001B90  0E00               	movlw	0
  4974   001B92  6E77               	movwf	_RB7_Flag^0,c	;volatile
  4975   001B94                     
  4976                           ;MCAL_Layer/interrupt/mcal_interrupt_manager.c: 82:           RB7_ISR(1);
  4977   001B94  0E01               	movlw	1
  4978   001B96  EC1D  F016         	call	_RB7_ISR
  4979   001B9A                     i2l1103:
  4980                           
  4981                           ;MCAL_Layer/interrupt/mcal_interrupt_manager.c: 85:     if((INTCONbits.RBIE ==1) && (INT
      +                          CONbits.RBIF ==1)&&
  4982   001B9A  A6F2               	btfss	242,3,c	;volatile
  4983   001B9C  EFD2  F00D         	goto	i2u643_41
  4984   001BA0  EFD4  F00D         	goto	i2u643_40
  4985   001BA4                     i2u643_41:
  4986   001BA4  EFEF  F00D         	goto	i2l1105
  4987   001BA8                     i2u643_40:
  4988   001BA8  A0F2               	btfss	242,0,c	;volatile
  4989   001BAA  EFD9  F00D         	goto	i2u644_41
  4990   001BAE  EFDB  F00D         	goto	i2u644_40
  4991   001BB2                     i2u644_41:
  4992   001BB2  EFEF  F00D         	goto	i2l1105
  4993   001BB6                     i2u644_40:
  4994   001BB6  BE81               	btfsc	129,7,c	;volatile
  4995   001BB8  EFE0  F00D         	goto	i2u645_41
  4996   001BBC  EFE2  F00D         	goto	i2u645_40
  4997   001BC0                     i2u645_41:
  4998   001BC0  EFEF  F00D         	goto	i2l1105
  4999   001BC4                     i2u645_40:
  5000   001BC4  5077               	movf	_RB7_Flag^0,w,c	;volatile
  5001   001BC6  A4D8               	btfss	status,2,c
  5002   001BC8  EFE8  F00D         	goto	i2u646_41
  5003   001BCC  EFEA  F00D         	goto	i2u646_40
  5004   001BD0                     i2u646_41:
  5005   001BD0  EFEF  F00D         	goto	i2l1105
  5006   001BD4                     i2u646_40:
  5007   001BD4                     
  5008                           ;MCAL_Layer/interrupt/mcal_interrupt_manager.c: 86:        (PORTBbits.RB7 == LOW)&& (RB7
      +                          _Flag== 0)){;MCAL_Layer/interrupt/mcal_interrupt_manager.c: 87:           RB7_Flag = 1;
  5009   001BD4  0E01               	movlw	1
  5010   001BD6  6E77               	movwf	_RB7_Flag^0,c	;volatile
  5011   001BD8                     
  5012                           ;MCAL_Layer/interrupt/mcal_interrupt_manager.c: 88:           RB7_ISR(0);
  5013   001BD8  0E00               	movlw	0
  5014   001BDA  EC1D  F016         	call	_RB7_ISR
  5015   001BDE                     i2l1105:
  5016                           
  5017                           ;MCAL_Layer/interrupt/mcal_interrupt_manager.c: 91:     if((PIE1bits.ADIE ==1) && (PIR1b
      +                          its.ADIF==1)){
  5018   001BDE  AC9D               	btfss	157,6,c	;volatile
  5019   001BE0  EFF4  F00D         	goto	i2u647_41
  5020   001BE4  EFF6  F00D         	goto	i2u647_40
  5021   001BE8                     i2u647_41:
  5022   001BE8  EFFF  F00D         	goto	i2l1107
  5023   001BEC                     i2u647_40:
  5024   001BEC  AC9E               	btfss	158,6,c	;volatile
  5025   001BEE  EFFB  F00D         	goto	i2u648_41
  5026   001BF2  EFFD  F00D         	goto	i2u648_40
  5027   001BF6                     i2u648_41:
  5028   001BF6  EFFF  F00D         	goto	i2l1107
  5029   001BFA                     i2u648_40:
  5030   001BFA                     
  5031                           ;MCAL_Layer/interrupt/mcal_interrupt_manager.c: 92:     ADC_ISR();
  5032   001BFA  EC76  F016         	call	_ADC_ISR	;wreg free
  5033   001BFE                     i2l1107:
  5034                           
  5035                           ;MCAL_Layer/interrupt/mcal_interrupt_manager.c: 95: if((INTCONbits.TMR0IE ==1) && (INTCO
      +                          Nbits.TMR0IF ==1)){
  5036   001BFE  AAF2               	btfss	242,5,c	;volatile
  5037   001C00  EF04  F00E         	goto	i2u649_41
  5038   001C04  EF06  F00E         	goto	i2u649_40
  5039   001C08                     i2u649_41:
  5040   001C08  EF0F  F00E         	goto	i2l1109
  5041   001C0C                     i2u649_40:
  5042   001C0C  A4F2               	btfss	242,2,c	;volatile
  5043   001C0E  EF0B  F00E         	goto	i2u650_41
  5044   001C12  EF0D  F00E         	goto	i2u650_40
  5045   001C16                     i2u650_41:
  5046   001C16  EF0F  F00E         	goto	i2l1109
  5047   001C1A                     i2u650_40:
  5048   001C1A                     
  5049                           ;MCAL_Layer/interrupt/mcal_interrupt_manager.c: 96:     TIMER0_ISR();
  5050   001C1A  EC5D  F016         	call	_TIMER0_ISR	;wreg free
  5051   001C1E                     i2l1109:
  5052                           
  5053                           ;MCAL_Layer/interrupt/mcal_interrupt_manager.c: 99: if((PIE1bits.TMR1IE ==1) && (PIR1bit
      +                          s.TMR1IF ==1)){
  5054   001C1E  A09D               	btfss	157,0,c	;volatile
  5055   001C20  EF14  F00E         	goto	i2u651_41
  5056   001C24  EF16  F00E         	goto	i2u651_40
  5057   001C28                     i2u651_41:
  5058   001C28  EF1F  F00E         	goto	i2l1111
  5059   001C2C                     i2u651_40:
  5060   001C2C  A09E               	btfss	158,0,c	;volatile
  5061   001C2E  EF1B  F00E         	goto	i2u652_41
  5062   001C32  EF1D  F00E         	goto	i2u652_40
  5063   001C36                     i2u652_41:
  5064   001C36  EF1F  F00E         	goto	i2l1111
  5065   001C3A                     i2u652_40:
  5066   001C3A                     
  5067                           ;MCAL_Layer/interrupt/mcal_interrupt_manager.c: 100:     TIMER1_ISR();
  5068   001C3A  EC57  F016         	call	_TIMER1_ISR	;wreg free
  5069   001C3E                     i2l1111:
  5070                           
  5071                           ;MCAL_Layer/interrupt/mcal_interrupt_manager.c: 103: if((PIE1bits.TMR2IE ==1) && (PIR1bi
      +                          ts.TMR2IF ==1)){
  5072   001C3E  A29D               	btfss	157,1,c	;volatile
  5073   001C40  EF24  F00E         	goto	i2u653_41
  5074   001C44  EF26  F00E         	goto	i2u653_40
  5075   001C48                     i2u653_41:
  5076   001C48  EF2F  F00E         	goto	i2l1113
  5077   001C4C                     i2u653_40:
  5078   001C4C  A29E               	btfss	158,1,c	;volatile
  5079   001C4E  EF2B  F00E         	goto	i2u654_41
  5080   001C52  EF2D  F00E         	goto	i2u654_40
  5081   001C56                     i2u654_41:
  5082   001C56  EF2F  F00E         	goto	i2l1113
  5083   001C5A                     i2u654_40:
  5084   001C5A                     
  5085                           ;MCAL_Layer/interrupt/mcal_interrupt_manager.c: 104:     TIMER2_ISR();
  5086   001C5A  EC63  F016         	call	_TIMER2_ISR	;wreg free
  5087   001C5E                     i2l1113:
  5088                           
  5089                           ;MCAL_Layer/interrupt/mcal_interrupt_manager.c: 107: if((PIE2bits.TMR3IE ==1) && (PIR2bi
      +                          ts.TMR3IF ==1)){
  5090   001C5E  A2A0               	btfss	160,1,c	;volatile
  5091   001C60  EF34  F00E         	goto	i2u655_41
  5092   001C64  EF36  F00E         	goto	i2u655_40
  5093   001C68                     i2u655_41:
  5094   001C68  EF3F  F00E         	goto	i2l1115
  5095   001C6C                     i2u655_40:
  5096   001C6C  A2A1               	btfss	161,1,c	;volatile
  5097   001C6E  EF3B  F00E         	goto	i2u656_41
  5098   001C72  EF3D  F00E         	goto	i2u656_40
  5099   001C76                     i2u656_41:
  5100   001C76  EF3F  F00E         	goto	i2l1115
  5101   001C7A                     i2u656_40:
  5102   001C7A                     
  5103                           ;MCAL_Layer/interrupt/mcal_interrupt_manager.c: 108:     TIMER3_ISR();
  5104   001C7A  EC51  F016         	call	_TIMER3_ISR	;wreg free
  5105   001C7E                     i2l1115:
  5106                           
  5107                           ;MCAL_Layer/interrupt/mcal_interrupt_manager.c: 112: if((PIE1bits.CCP1IE ==1) && (PIR1bi
      +                          ts.CCP1IF ==1)){
  5108   001C7E  A49D               	btfss	157,2,c	;volatile
  5109   001C80  EF44  F00E         	goto	i2u657_41
  5110   001C84  EF46  F00E         	goto	i2u657_40
  5111   001C88                     i2u657_41:
  5112   001C88  EF4F  F00E         	goto	i2l1117
  5113   001C8C                     i2u657_40:
  5114   001C8C  A49E               	btfss	158,2,c	;volatile
  5115   001C8E  EF4B  F00E         	goto	i2u658_41
  5116   001C92  EF4D  F00E         	goto	i2u658_40
  5117   001C96                     i2u658_41:
  5118   001C96  EF4F  F00E         	goto	i2l1117
  5119   001C9A                     i2u658_40:
  5120   001C9A                     
  5121                           ;MCAL_Layer/interrupt/mcal_interrupt_manager.c: 113:     CCP1_ISR();
  5122   001C9A  EC74  F016         	call	_CCP1_ISR	;wreg free
  5123   001C9E                     i2l1117:
  5124                           
  5125                           ;MCAL_Layer/interrupt/mcal_interrupt_manager.c: 116: if((PIE2bits.CCP2IE ==1) && (PIR2bi
      +                          ts.CCP2IF ==1)){
  5126   001C9E  A0A0               	btfss	160,0,c	;volatile
  5127   001CA0  EF54  F00E         	goto	i2u659_41
  5128   001CA4  EF56  F00E         	goto	i2u659_40
  5129   001CA8                     i2u659_41:
  5130   001CA8  EF5F  F00E         	goto	i2l1119
  5131   001CAC                     i2u659_40:
  5132   001CAC  A0A1               	btfss	161,0,c	;volatile
  5133   001CAE  EF5B  F00E         	goto	i2u660_41
  5134   001CB2  EF5D  F00E         	goto	i2u660_40
  5135   001CB6                     i2u660_41:
  5136   001CB6  EF5F  F00E         	goto	i2l1119
  5137   001CBA                     i2u660_40:
  5138   001CBA                     
  5139                           ;MCAL_Layer/interrupt/mcal_interrupt_manager.c: 117:     CCP2_ISR();
  5140   001CBA  EC72  F016         	call	_CCP2_ISR	;wreg free
  5141   001CBE                     i2l1119:
  5142                           
  5143                           ;MCAL_Layer/interrupt/mcal_interrupt_manager.c: 121: if((PIE1bits.TXIE ==1) && (PIR1bits
      +                          .TXIF==1)){
  5144   001CBE  A89D               	btfss	157,4,c	;volatile
  5145   001CC0  EF64  F00E         	goto	i2u661_41
  5146   001CC4  EF66  F00E         	goto	i2u661_40
  5147   001CC8                     i2u661_41:
  5148   001CC8  EF6F  F00E         	goto	i2l1121
  5149   001CCC                     i2u661_40:
  5150   001CCC  A89E               	btfss	158,4,c	;volatile
  5151   001CCE  EF6B  F00E         	goto	i2u662_41
  5152   001CD2  EF6D  F00E         	goto	i2u662_40
  5153   001CD6                     i2u662_41:
  5154   001CD6  EF6F  F00E         	goto	i2l1121
  5155   001CDA                     i2u662_40:
  5156   001CDA                     
  5157                           ;MCAL_Layer/interrupt/mcal_interrupt_manager.c: 122:        EUSART_TX_ISR();
  5158   001CDA  EC70  F016         	call	_EUSART_TX_ISR	;wreg free
  5159   001CDE                     i2l1121:
  5160                           
  5161                           ;MCAL_Layer/interrupt/mcal_interrupt_manager.c: 126: if((PIE1bits.RCIE ==1) && (PIR1bits
      +                          .RCIF==1)){
  5162   001CDE  AA9D               	btfss	157,5,c	;volatile
  5163   001CE0  EF74  F00E         	goto	i2u663_41
  5164   001CE4  EF76  F00E         	goto	i2u663_40
  5165   001CE8                     i2u663_41:
  5166   001CE8  EF7F  F00E         	goto	i2l1124
  5167   001CEC                     i2u663_40:
  5168   001CEC  AA9E               	btfss	158,5,c	;volatile
  5169   001CEE  EF7B  F00E         	goto	i2u664_41
  5170   001CF2  EF7D  F00E         	goto	i2u664_40
  5171   001CF6                     i2u664_41:
  5172   001CF6  EF7F  F00E         	goto	i2l1124
  5173   001CFA                     i2u664_40:
  5174   001CFA                     
  5175                           ;MCAL_Layer/interrupt/mcal_interrupt_manager.c: 127:       EUSART_RX_ISR();
  5176   001CFA  EC78  F016         	call	_EUSART_RX_ISR	;wreg free
  5177   001CFE                     i2l1124:
  5178   001CFE  927D               	bcf	int$flags,1,c	;clear compiler interrupt flag (level 2)
  5179   001D00  0011               	retfie		f
  5180   001D02                     __end_of_Interrupt_Manager:
  5181                           	callstack 0
  5182                           
  5183 ;; *************** function _TIMER3_ISR *****************
  5184 ;; Defined at:
  5185 ;;		line 112 in file "MCAL_Layer/Timer3/hal_timer3.c"
  5186 ;; Parameters:    Size  Location     Type
  5187 ;;		None
  5188 ;; Auto vars:     Size  Location     Type
  5189 ;;		None
  5190 ;; Return value:  Size  Location     Type
  5191 ;;                  1    wreg      void 
  5192 ;; Registers used:
  5193 ;;		None
  5194 ;; Tracked objects:
  5195 ;;		On entry : 0/0
  5196 ;;		On exit  : 0/0
  5197 ;;		Unchanged: 0/0
  5198 ;; Data sizes:     COMRAM   BANK0   BANK1   BANK2   BANK3   BANK4   BANK5   BANK6   BANK7   BANK8   BANK9  BANK10  BANK1
      +1  BANK12  BANK13  BANK14  BANK15
  5199 ;;      Params:         0       0       0       0       0       0       0       0       0       0       0       0       
      +0       0       0       0       0
  5200 ;;      Locals:         0       0       0       0       0       0       0       0       0       0       0       0       
      +0       0       0       0       0
  5201 ;;      Temps:          0       0       0       0       0       0       0       0       0       0       0       0       
      +0       0       0       0       0
  5202 ;;      Totals:         0       0       0       0       0       0       0       0       0       0       0       0       
      +0       0       0       0       0
  5203 ;;Total ram usage:        0 bytes
  5204 ;; Hardware stack levels used: 1
  5205 ;; This function calls:
  5206 ;;		Nothing
  5207 ;; This function is called by:
  5208 ;;		_Interrupt_Manager
  5209 ;; This function uses a non-reentrant model
  5210 ;;
  5211                           
  5212                           	psect	text20
  5213   002CA2                     __ptext20:
  5214                           	callstack 0
  5215   002CA2                     _TIMER3_ISR:
  5216                           	callstack 25
  5217   002CA2                     
  5218                           ;MCAL_Layer/Timer3/hal_timer3.c: 113: (PIR2bits.TMR3IF = 0);
  5219   002CA2  92A1               	bcf	161,1,c	;volatile
  5220                           
  5221                           ;MCAL_Layer/Timer3/hal_timer3.c: 114: TMR3H = (timer3_preload)>>8;
  5222   002CA4  C0B5  FFB3         	movff	_timer3_preload+1,4019	;volatile
  5223                           
  5224                           ;MCAL_Layer/Timer3/hal_timer3.c: 115: TMR3L = (uint_8)(timer3_preload);
  5225   002CA8  C0B4  FFB2         	movff	_timer3_preload,4018	;volatile
  5226   002CAC  0012               	return		;funcret
  5227   002CAE                     __end_of_TIMER3_ISR:
  5228                           	callstack 0
  5229                           
  5230 ;; *************** function _TIMER2_ISR *****************
  5231 ;; Defined at:
  5232 ;;		line 89 in file "MCAL_Layer/Timer2/hal_timer2.c"
  5233 ;; Parameters:    Size  Location     Type
  5234 ;;		None
  5235 ;; Auto vars:     Size  Location     Type
  5236 ;;		None
  5237 ;; Return value:  Size  Location     Type
  5238 ;;                  1    wreg      void 
  5239 ;; Registers used:
  5240 ;;		None
  5241 ;; Tracked objects:
  5242 ;;		On entry : 0/0
  5243 ;;		On exit  : 0/0
  5244 ;;		Unchanged: 0/0
  5245 ;; Data sizes:     COMRAM   BANK0   BANK1   BANK2   BANK3   BANK4   BANK5   BANK6   BANK7   BANK8   BANK9  BANK10  BANK1
      +1  BANK12  BANK13  BANK14  BANK15
  5246 ;;      Params:         0       0       0       0       0       0       0       0       0       0       0       0       
      +0       0       0       0       0
  5247 ;;      Locals:         0       0       0       0       0       0       0       0       0       0       0       0       
      +0       0       0       0       0
  5248 ;;      Temps:          0       0       0       0       0       0       0       0       0       0       0       0       
      +0       0       0       0       0
  5249 ;;      Totals:         0       0       0       0       0       0       0       0       0       0       0       0       
      +0       0       0       0       0
  5250 ;;Total ram usage:        0 bytes
  5251 ;; Hardware stack levels used: 1
  5252 ;; This function calls:
  5253 ;;		Nothing
  5254 ;; This function is called by:
  5255 ;;		_Interrupt_Manager
  5256 ;; This function uses a non-reentrant model
  5257 ;;
  5258                           
  5259                           	psect	text21
  5260   002CC6                     __ptext21:
  5261                           	callstack 0
  5262   002CC6                     _TIMER2_ISR:
  5263                           	callstack 25
  5264   002CC6                     
  5265                           ;MCAL_Layer/Timer2/hal_timer2.c: 90:   (PIR1bits.TMR2IF = 0);
  5266   002CC6  929E               	bcf	158,1,c	;volatile
  5267                           
  5268                           ;MCAL_Layer/Timer2/hal_timer2.c: 91:   TMR2 = timer2_preloaded;
  5269   002CC8  C06E  FFCC         	movff	_timer2_preloaded,4044	;volatile
  5270   002CCC  0012               	return		;funcret
  5271   002CCE                     __end_of_TIMER2_ISR:
  5272                           	callstack 0
  5273                           
  5274 ;; *************** function _TIMER1_ISR *****************
  5275 ;; Defined at:
  5276 ;;		line 116 in file "MCAL_Layer/Timer1/hal_timer1.c"
  5277 ;; Parameters:    Size  Location     Type
  5278 ;;		None
  5279 ;; Auto vars:     Size  Location     Type
  5280 ;;		None
  5281 ;; Return value:  Size  Location     Type
  5282 ;;                  1    wreg      void 
  5283 ;; Registers used:
  5284 ;;		None
  5285 ;; Tracked objects:
  5286 ;;		On entry : 0/0
  5287 ;;		On exit  : 0/0
  5288 ;;		Unchanged: 0/0
  5289 ;; Data sizes:     COMRAM   BANK0   BANK1   BANK2   BANK3   BANK4   BANK5   BANK6   BANK7   BANK8   BANK9  BANK10  BANK1
      +1  BANK12  BANK13  BANK14  BANK15
  5290 ;;      Params:         0       0       0       0       0       0       0       0       0       0       0       0       
      +0       0       0       0       0
  5291 ;;      Locals:         0       0       0       0       0       0       0       0       0       0       0       0       
      +0       0       0       0       0
  5292 ;;      Temps:          0       0       0       0       0       0       0       0       0       0       0       0       
      +0       0       0       0       0
  5293 ;;      Totals:         0       0       0       0       0       0       0       0       0       0       0       0       
      +0       0       0       0       0
  5294 ;;Total ram usage:        0 bytes
  5295 ;; Hardware stack levels used: 1
  5296 ;; This function calls:
  5297 ;;		Nothing
  5298 ;; This function is called by:
  5299 ;;		_Interrupt_Manager
  5300 ;; This function uses a non-reentrant model
  5301 ;;
  5302                           
  5303                           	psect	text22
  5304   002CAE                     __ptext22:
  5305                           	callstack 0
  5306   002CAE                     _TIMER1_ISR:
  5307                           	callstack 25
  5308   002CAE                     
  5309                           ;MCAL_Layer/Timer1/hal_timer1.c: 117: (PIR1bits.TMR1IF = 0);
  5310   002CAE  909E               	bcf	158,0,c	;volatile
  5311                           
  5312                           ;MCAL_Layer/Timer1/hal_timer1.c: 118: TMR1H = (timer1_preload) >> 8;
  5313   002CB0  C0B9  FFCF         	movff	_timer1_preload+1,4047	;volatile
  5314                           
  5315                           ;MCAL_Layer/Timer1/hal_timer1.c: 119: TMR1L = (uint_8)(timer1_preload);
  5316   002CB4  C0B8  FFCE         	movff	_timer1_preload,4046	;volatile
  5317   002CB8  0012               	return		;funcret
  5318   002CBA                     __end_of_TIMER1_ISR:
  5319                           	callstack 0
  5320                           
  5321 ;; *************** function _TIMER0_ISR *****************
  5322 ;; Defined at:
  5323 ;;		line 95 in file "MCAL_Layer/Timer/hal_Timer0.c"
  5324 ;; Parameters:    Size  Location     Type
  5325 ;;		None
  5326 ;; Auto vars:     Size  Location     Type
  5327 ;;		None
  5328 ;; Return value:  Size  Location     Type
  5329 ;;                  1    wreg      void 
  5330 ;; Registers used:
  5331 ;;		wreg, status,2
  5332 ;; Tracked objects:
  5333 ;;		On entry : 0/0
  5334 ;;		On exit  : 0/0
  5335 ;;		Unchanged: 0/0
  5336 ;; Data sizes:     COMRAM   BANK0   BANK1   BANK2   BANK3   BANK4   BANK5   BANK6   BANK7   BANK8   BANK9  BANK10  BANK1
      +1  BANK12  BANK13  BANK14  BANK15
  5337 ;;      Params:         0       0       0       0       0       0       0       0       0       0       0       0       
      +0       0       0       0       0
  5338 ;;      Locals:         0       0       0       0       0       0       0       0       0       0       0       0       
      +0       0       0       0       0
  5339 ;;      Temps:          0       0       0       0       0       0       0       0       0       0       0       0       
      +0       0       0       0       0
  5340 ;;      Totals:         0       0       0       0       0       0       0       0       0       0       0       0       
      +0       0       0       0       0
  5341 ;;Total ram usage:        0 bytes
  5342 ;; Hardware stack levels used: 1
  5343 ;; This function calls:
  5344 ;;		Nothing
  5345 ;; This function is called by:
  5346 ;;		_Interrupt_Manager
  5347 ;; This function uses a non-reentrant model
  5348 ;;
  5349                           
  5350                           	psect	text23
  5351   002CBA                     __ptext23:
  5352                           	callstack 0
  5353   002CBA                     _TIMER0_ISR:
  5354                           	callstack 25
  5355   002CBA                     
  5356                           ;MCAL_Layer/Timer/hal_Timer0.c: 96: (INTCONbits.TMR0IF = 0);
  5357   002CBA  94F2               	bcf	242,2,c	;volatile
  5358   002CBC                     
  5359                           ;MCAL_Layer/Timer/hal_Timer0.c: 97: TMR0H = (timer0_preload)>>8;
  5360   002CBC  504B               	movf	(_timer0_preload+1)^0,w,c
  5361   002CBE  6ED7               	movwf	215,c	;volatile
  5362   002CC0                     
  5363                           ;MCAL_Layer/Timer/hal_Timer0.c: 98: TMR0L = (uint_8)(timer0_preload);
  5364   002CC0  C04A  FFD6         	movff	_timer0_preload,4054	;volatile
  5365   002CC4  0012               	return		;funcret
  5366   002CC6                     __end_of_TIMER0_ISR:
  5367                           	callstack 0
  5368                           
  5369 ;; *************** function _RB7_ISR *****************
  5370 ;; Defined at:
  5371 ;;		line 500 in file "MCAL_Layer/interrupt/mcal_external_interrupt.c"
  5372 ;; Parameters:    Size  Location     Type
  5373 ;;  source          1    wreg     unsigned char 
  5374 ;; Auto vars:     Size  Location     Type
  5375 ;;  source          1    0[COMRAM] unsigned char 
  5376 ;; Return value:  Size  Location     Type
  5377 ;;                  1    wreg      void 
  5378 ;; Registers used:
  5379 ;;		wreg, status,2, status,0
  5380 ;; Tracked objects:
  5381 ;;		On entry : 0/0
  5382 ;;		On exit  : 0/0
  5383 ;;		Unchanged: 0/0
  5384 ;; Data sizes:     COMRAM   BANK0   BANK1   BANK2   BANK3   BANK4   BANK5   BANK6   BANK7   BANK8   BANK9  BANK10  BANK1
      +1  BANK12  BANK13  BANK14  BANK15
  5385 ;;      Params:         0       0       0       0       0       0       0       0       0       0       0       0       
      +0       0       0       0       0
  5386 ;;      Locals:         1       0       0       0       0       0       0       0       0       0       0       0       
      +0       0       0       0       0
  5387 ;;      Temps:          0       0       0       0       0       0       0       0       0       0       0       0       
      +0       0       0       0       0
  5388 ;;      Totals:         1       0       0       0       0       0       0       0       0       0       0       0       
      +0       0       0       0       0
  5389 ;;Total ram usage:        1 bytes
  5390 ;; Hardware stack levels used: 1
  5391 ;; This function calls:
  5392 ;;		Nothing
  5393 ;; This function is called by:
  5394 ;;		_Interrupt_Manager
  5395 ;; This function uses a non-reentrant model
  5396 ;;
  5397                           
  5398                           	psect	text24
  5399   002C3A                     __ptext24:
  5400                           	callstack 0
  5401   002C3A                     _RB7_ISR:
  5402                           	callstack 25
  5403                           
  5404                           ;incstack = 0
  5405                           ;RB7_ISR@source stored from wreg
  5406   002C3A  6E01               	movwf	RB7_ISR@source^0,c
  5407   002C3C                     
  5408                           ;MCAL_Layer/interrupt/mcal_external_interrupt.c: 501:  (INTCONbits.RBIF = 0);
  5409   002C3C  90F2               	bcf	242,0,c	;volatile
  5410   002C3E                     
  5411                           ;MCAL_Layer/interrupt/mcal_external_interrupt.c: 502: if(source == 0){
  5412   002C3E  5001               	movf	RB7_ISR@source^0,w,c
  5413   002C40  A4D8               	btfss	status,2,c
  5414   002C42  EF25  F016         	goto	i2u146_41
  5415   002C46  EF27  F016         	goto	i2u146_40
  5416   002C4A                     i2u146_41:
  5417   002C4A  EF29  F016         	goto	i2l3230
  5418   002C4E                     i2u146_40:
  5419   002C4E  EF29  F016         	goto	i2l1025
  5420   002C52                     i2l3230:
  5421   002C52                     i2l1025:
  5422   002C52  0012               	return		;funcret
  5423   002C54                     __end_of_RB7_ISR:
  5424                           	callstack 0
  5425                           
  5426 ;; *************** function _RB6_ISR *****************
  5427 ;; Defined at:
  5428 ;;		line 488 in file "MCAL_Layer/interrupt/mcal_external_interrupt.c"
  5429 ;; Parameters:    Size  Location     Type
  5430 ;;  source          1    wreg     unsigned char 
  5431 ;; Auto vars:     Size  Location     Type
  5432 ;;  source          1    0[COMRAM] unsigned char 
  5433 ;; Return value:  Size  Location     Type
  5434 ;;                  1    wreg      void 
  5435 ;; Registers used:
  5436 ;;		wreg, status,2, status,0
  5437 ;; Tracked objects:
  5438 ;;		On entry : 0/0
  5439 ;;		On exit  : 0/0
  5440 ;;		Unchanged: 0/0
  5441 ;; Data sizes:     COMRAM   BANK0   BANK1   BANK2   BANK3   BANK4   BANK5   BANK6   BANK7   BANK8   BANK9  BANK10  BANK1
      +1  BANK12  BANK13  BANK14  BANK15
  5442 ;;      Params:         0       0       0       0       0       0       0       0       0       0       0       0       
      +0       0       0       0       0
  5443 ;;      Locals:         1       0       0       0       0       0       0       0       0       0       0       0       
      +0       0       0       0       0
  5444 ;;      Temps:          0       0       0       0       0       0       0       0       0       0       0       0       
      +0       0       0       0       0
  5445 ;;      Totals:         1       0       0       0       0       0       0       0       0       0       0       0       
      +0       0       0       0       0
  5446 ;;Total ram usage:        1 bytes
  5447 ;; Hardware stack levels used: 1
  5448 ;; This function calls:
  5449 ;;		Nothing
  5450 ;; This function is called by:
  5451 ;;		_Interrupt_Manager
  5452 ;; This function uses a non-reentrant model
  5453 ;;
  5454                           
  5455                           	psect	text25
  5456   002C54                     __ptext25:
  5457                           	callstack 0
  5458   002C54                     _RB6_ISR:
  5459                           	callstack 25
  5460                           
  5461                           ;incstack = 0
  5462                           ;RB6_ISR@source stored from wreg
  5463   002C54  6E01               	movwf	RB6_ISR@source^0,c
  5464   002C56                     
  5465                           ;MCAL_Layer/interrupt/mcal_external_interrupt.c: 489:  (INTCONbits.RBIF = 0);
  5466   002C56  90F2               	bcf	242,0,c	;volatile
  5467   002C58                     
  5468                           ;MCAL_Layer/interrupt/mcal_external_interrupt.c: 490: if(source == 0){
  5469   002C58  5001               	movf	RB6_ISR@source^0,w,c
  5470   002C5A  A4D8               	btfss	status,2,c
  5471   002C5C  EF32  F016         	goto	i2u145_41
  5472   002C60  EF34  F016         	goto	i2u145_40
  5473   002C64                     i2u145_41:
  5474   002C64  EF36  F016         	goto	i2l3216
  5475   002C68                     i2u145_40:
  5476   002C68  EF36  F016         	goto	i2l1014
  5477   002C6C                     i2l3216:
  5478   002C6C                     i2l1014:
  5479   002C6C  0012               	return		;funcret
  5480   002C6E                     __end_of_RB6_ISR:
  5481                           	callstack 0
  5482                           
  5483 ;; *************** function _RB5_ISR *****************
  5484 ;; Defined at:
  5485 ;;		line 476 in file "MCAL_Layer/interrupt/mcal_external_interrupt.c"
  5486 ;; Parameters:    Size  Location     Type
  5487 ;;  source          1    wreg     unsigned char 
  5488 ;; Auto vars:     Size  Location     Type
  5489 ;;  source          1    0[COMRAM] unsigned char 
  5490 ;; Return value:  Size  Location     Type
  5491 ;;                  1    wreg      void 
  5492 ;; Registers used:
  5493 ;;		wreg, status,2, status,0
  5494 ;; Tracked objects:
  5495 ;;		On entry : 0/0
  5496 ;;		On exit  : 0/0
  5497 ;;		Unchanged: 0/0
  5498 ;; Data sizes:     COMRAM   BANK0   BANK1   BANK2   BANK3   BANK4   BANK5   BANK6   BANK7   BANK8   BANK9  BANK10  BANK1
      +1  BANK12  BANK13  BANK14  BANK15
  5499 ;;      Params:         0       0       0       0       0       0       0       0       0       0       0       0       
      +0       0       0       0       0
  5500 ;;      Locals:         1       0       0       0       0       0       0       0       0       0       0       0       
      +0       0       0       0       0
  5501 ;;      Temps:          0       0       0       0       0       0       0       0       0       0       0       0       
      +0       0       0       0       0
  5502 ;;      Totals:         1       0       0       0       0       0       0       0       0       0       0       0       
      +0       0       0       0       0
  5503 ;;Total ram usage:        1 bytes
  5504 ;; Hardware stack levels used: 1
  5505 ;; This function calls:
  5506 ;;		Nothing
  5507 ;; This function is called by:
  5508 ;;		_Interrupt_Manager
  5509 ;; This function uses a non-reentrant model
  5510 ;;
  5511                           
  5512                           	psect	text26
  5513   002C6E                     __ptext26:
  5514                           	callstack 0
  5515   002C6E                     _RB5_ISR:
  5516                           	callstack 25
  5517                           
  5518                           ;incstack = 0
  5519                           ;RB5_ISR@source stored from wreg
  5520   002C6E  6E01               	movwf	RB5_ISR@source^0,c
  5521   002C70                     
  5522                           ;MCAL_Layer/interrupt/mcal_external_interrupt.c: 477:  (INTCONbits.RBIF = 0);
  5523   002C70  90F2               	bcf	242,0,c	;volatile
  5524   002C72                     
  5525                           ;MCAL_Layer/interrupt/mcal_external_interrupt.c: 478: if(source == 0){
  5526   002C72  5001               	movf	RB5_ISR@source^0,w,c
  5527   002C74  A4D8               	btfss	status,2,c
  5528   002C76  EF3F  F016         	goto	i2u144_41
  5529   002C7A  EF41  F016         	goto	i2u144_40
  5530   002C7E                     i2u144_41:
  5531   002C7E  EF43  F016         	goto	i2l3202
  5532   002C82                     i2u144_40:
  5533   002C82  EF43  F016         	goto	i2l1003
  5534   002C86                     i2l3202:
  5535   002C86                     i2l1003:
  5536   002C86  0012               	return		;funcret
  5537   002C88                     __end_of_RB5_ISR:
  5538                           	callstack 0
  5539                           
  5540 ;; *************** function _RB4_ISR *****************
  5541 ;; Defined at:
  5542 ;;		line 463 in file "MCAL_Layer/interrupt/mcal_external_interrupt.c"
  5543 ;; Parameters:    Size  Location     Type
  5544 ;;  source          1    wreg     unsigned char 
  5545 ;; Auto vars:     Size  Location     Type
  5546 ;;  source          1    0[COMRAM] unsigned char 
  5547 ;; Return value:  Size  Location     Type
  5548 ;;                  1    wreg      void 
  5549 ;; Registers used:
  5550 ;;		wreg, status,2, status,0
  5551 ;; Tracked objects:
  5552 ;;		On entry : 0/0
  5553 ;;		On exit  : 0/0
  5554 ;;		Unchanged: 0/0
  5555 ;; Data sizes:     COMRAM   BANK0   BANK1   BANK2   BANK3   BANK4   BANK5   BANK6   BANK7   BANK8   BANK9  BANK10  BANK1
      +1  BANK12  BANK13  BANK14  BANK15
  5556 ;;      Params:         0       0       0       0       0       0       0       0       0       0       0       0       
      +0       0       0       0       0
  5557 ;;      Locals:         1       0       0       0       0       0       0       0       0       0       0       0       
      +0       0       0       0       0
  5558 ;;      Temps:          0       0       0       0       0       0       0       0       0       0       0       0       
      +0       0       0       0       0
  5559 ;;      Totals:         1       0       0       0       0       0       0       0       0       0       0       0       
      +0       0       0       0       0
  5560 ;;Total ram usage:        1 bytes
  5561 ;; Hardware stack levels used: 1
  5562 ;; This function calls:
  5563 ;;		Nothing
  5564 ;; This function is called by:
  5565 ;;		_Interrupt_Manager
  5566 ;; This function uses a non-reentrant model
  5567 ;;
  5568                           
  5569                           	psect	text27
  5570   002C88                     __ptext27:
  5571                           	callstack 0
  5572   002C88                     _RB4_ISR:
  5573                           	callstack 25
  5574                           
  5575                           ;incstack = 0
  5576                           ;RB4_ISR@source stored from wreg
  5577   002C88  6E01               	movwf	RB4_ISR@source^0,c
  5578   002C8A                     
  5579                           ;MCAL_Layer/interrupt/mcal_external_interrupt.c: 464: (INTCONbits.RBIF = 0);
  5580   002C8A  90F2               	bcf	242,0,c	;volatile
  5581   002C8C                     
  5582                           ;MCAL_Layer/interrupt/mcal_external_interrupt.c: 466: if(source == 0){
  5583   002C8C  5001               	movf	RB4_ISR@source^0,w,c
  5584   002C8E  A4D8               	btfss	status,2,c
  5585   002C90  EF4C  F016         	goto	i2u143_41
  5586   002C94  EF4E  F016         	goto	i2u143_40
  5587   002C98                     i2u143_41:
  5588   002C98  EF50  F016         	goto	i2l3188
  5589   002C9C                     i2u143_40:
  5590   002C9C  EF50  F016         	goto	i2l992
  5591   002CA0                     i2l3188:
  5592   002CA0                     i2l992:
  5593   002CA0  0012               	return		;funcret
  5594   002CA2                     __end_of_RB4_ISR:
  5595                           	callstack 0
  5596                           
  5597 ;; *************** function _INT2_ISR *****************
  5598 ;; Defined at:
  5599 ;;		line 454 in file "MCAL_Layer/interrupt/mcal_external_interrupt.c"
  5600 ;; Parameters:    Size  Location     Type
  5601 ;;		None
  5602 ;; Auto vars:     Size  Location     Type
  5603 ;;		None
  5604 ;; Return value:  Size  Location     Type
  5605 ;;                  1    wreg      void 
  5606 ;; Registers used:
  5607 ;;		None
  5608 ;; Tracked objects:
  5609 ;;		On entry : 0/0
  5610 ;;		On exit  : 0/0
  5611 ;;		Unchanged: 0/0
  5612 ;; Data sizes:     COMRAM   BANK0   BANK1   BANK2   BANK3   BANK4   BANK5   BANK6   BANK7   BANK8   BANK9  BANK10  BANK1
      +1  BANK12  BANK13  BANK14  BANK15
  5613 ;;      Params:         0       0       0       0       0       0       0       0       0       0       0       0       
      +0       0       0       0       0
  5614 ;;      Locals:         0       0       0       0       0       0       0       0       0       0       0       0       
      +0       0       0       0       0
  5615 ;;      Temps:          0       0       0       0       0       0       0       0       0       0       0       0       
      +0       0       0       0       0
  5616 ;;      Totals:         0       0       0       0       0       0       0       0       0       0       0       0       
      +0       0       0       0       0
  5617 ;;Total ram usage:        0 bytes
  5618 ;; Hardware stack levels used: 1
  5619 ;; This function calls:
  5620 ;;		Nothing
  5621 ;; This function is called by:
  5622 ;;		_Interrupt_Manager
  5623 ;; This function uses a non-reentrant model
  5624 ;;
  5625                           
  5626                           	psect	text28
  5627   002CD4                     __ptext28:
  5628                           	callstack 0
  5629   002CD4                     _INT2_ISR:
  5630                           	callstack 25
  5631   002CD4                     
  5632                           ;MCAL_Layer/interrupt/mcal_external_interrupt.c: 456:     (INTCON3bits.INT2IF = 0);
  5633   002CD4  92F0               	bcf	240,1,c	;volatile
  5634   002CD6  0012               	return		;funcret
  5635   002CD8                     __end_of_INT2_ISR:
  5636                           	callstack 0
  5637                           
  5638 ;; *************** function _INT1_ISR *****************
  5639 ;; Defined at:
  5640 ;;		line 446 in file "MCAL_Layer/interrupt/mcal_external_interrupt.c"
  5641 ;; Parameters:    Size  Location     Type
  5642 ;;		None
  5643 ;; Auto vars:     Size  Location     Type
  5644 ;;		None
  5645 ;; Return value:  Size  Location     Type
  5646 ;;                  1    wreg      void 
  5647 ;; Registers used:
  5648 ;;		None
  5649 ;; Tracked objects:
  5650 ;;		On entry : 0/0
  5651 ;;		On exit  : 0/0
  5652 ;;		Unchanged: 0/0
  5653 ;; Data sizes:     COMRAM   BANK0   BANK1   BANK2   BANK3   BANK4   BANK5   BANK6   BANK7   BANK8   BANK9  BANK10  BANK1
      +1  BANK12  BANK13  BANK14  BANK15
  5654 ;;      Params:         0       0       0       0       0       0       0       0       0       0       0       0       
      +0       0       0       0       0
  5655 ;;      Locals:         0       0       0       0       0       0       0       0       0       0       0       0       
      +0       0       0       0       0
  5656 ;;      Temps:          0       0       0       0       0       0       0       0       0       0       0       0       
      +0       0       0       0       0
  5657 ;;      Totals:         0       0       0       0       0       0       0       0       0       0       0       0       
      +0       0       0       0       0
  5658 ;;Total ram usage:        0 bytes
  5659 ;; Hardware stack levels used: 1
  5660 ;; This function calls:
  5661 ;;		Nothing
  5662 ;; This function is called by:
  5663 ;;		_Interrupt_Manager
  5664 ;; This function uses a non-reentrant model
  5665 ;;
  5666                           
  5667                           	psect	text29
  5668   002CD8                     __ptext29:
  5669                           	callstack 0
  5670   002CD8                     _INT1_ISR:
  5671                           	callstack 25
  5672   002CD8                     
  5673                           ;MCAL_Layer/interrupt/mcal_external_interrupt.c: 448:     (INTCON3bits.INT1IF = 0);
  5674   002CD8  90F0               	bcf	240,0,c	;volatile
  5675   002CDA  0012               	return		;funcret
  5676   002CDC                     __end_of_INT1_ISR:
  5677                           	callstack 0
  5678                           
  5679 ;; *************** function _INT0_ISR *****************
  5680 ;; Defined at:
  5681 ;;		line 438 in file "MCAL_Layer/interrupt/mcal_external_interrupt.c"
  5682 ;; Parameters:    Size  Location     Type
  5683 ;;		None
  5684 ;; Auto vars:     Size  Location     Type
  5685 ;;		None
  5686 ;; Return value:  Size  Location     Type
  5687 ;;                  1    wreg      void 
  5688 ;; Registers used:
  5689 ;;		None
  5690 ;; Tracked objects:
  5691 ;;		On entry : 0/0
  5692 ;;		On exit  : 0/0
  5693 ;;		Unchanged: 0/0
  5694 ;; Data sizes:     COMRAM   BANK0   BANK1   BANK2   BANK3   BANK4   BANK5   BANK6   BANK7   BANK8   BANK9  BANK10  BANK1
      +1  BANK12  BANK13  BANK14  BANK15
  5695 ;;      Params:         0       0       0       0       0       0       0       0       0       0       0       0       
      +0       0       0       0       0
  5696 ;;      Locals:         0       0       0       0       0       0       0       0       0       0       0       0       
      +0       0       0       0       0
  5697 ;;      Temps:          0       0       0       0       0       0       0       0       0       0       0       0       
      +0       0       0       0       0
  5698 ;;      Totals:         0       0       0       0       0       0       0       0       0       0       0       0       
      +0       0       0       0       0
  5699 ;;Total ram usage:        0 bytes
  5700 ;; Hardware stack levels used: 1
  5701 ;; This function calls:
  5702 ;;		Nothing
  5703 ;; This function is called by:
  5704 ;;		_Interrupt_Manager
  5705 ;; This function uses a non-reentrant model
  5706 ;;
  5707                           
  5708                           	psect	text30
  5709   002CDC                     __ptext30:
  5710                           	callstack 0
  5711   002CDC                     _INT0_ISR:
  5712                           	callstack 25
  5713   002CDC                     
  5714                           ;MCAL_Layer/interrupt/mcal_external_interrupt.c: 440:     (INTCONbits.INT0IF = 0);
  5715   002CDC  92F2               	bcf	242,1,c	;volatile
  5716   002CDE  0012               	return		;funcret
  5717   002CE0                     __end_of_INT0_ISR:
  5718                           	callstack 0
  5719                           
  5720 ;; *************** function _EUSART_TX_ISR *****************
  5721 ;; Defined at:
  5722 ;;		line 253 in file "MCAL_Layer/UART/hal_uart.c"
  5723 ;; Parameters:    Size  Location     Type
  5724 ;;		None
  5725 ;; Auto vars:     Size  Location     Type
  5726 ;;		None
  5727 ;; Return value:  Size  Location     Type
  5728 ;;                  1    wreg      void 
  5729 ;; Registers used:
  5730 ;;		None
  5731 ;; Tracked objects:
  5732 ;;		On entry : 0/0
  5733 ;;		On exit  : 0/0
  5734 ;;		Unchanged: 0/0
  5735 ;; Data sizes:     COMRAM   BANK0   BANK1   BANK2   BANK3   BANK4   BANK5   BANK6   BANK7   BANK8   BANK9  BANK10  BANK1
      +1  BANK12  BANK13  BANK14  BANK15
  5736 ;;      Params:         0       0       0       0       0       0       0       0       0       0       0       0       
      +0       0       0       0       0
  5737 ;;      Locals:         0       0       0       0       0       0       0       0       0       0       0       0       
      +0       0       0       0       0
  5738 ;;      Temps:          0       0       0       0       0       0       0       0       0       0       0       0       
      +0       0       0       0       0
  5739 ;;      Totals:         0       0       0       0       0       0       0       0       0       0       0       0       
      +0       0       0       0       0
  5740 ;;Total ram usage:        0 bytes
  5741 ;; Hardware stack levels used: 1
  5742 ;; This function calls:
  5743 ;;		Nothing
  5744 ;; This function is called by:
  5745 ;;		_Interrupt_Manager
  5746 ;; This function uses a non-reentrant model
  5747 ;;
  5748                           
  5749                           	psect	text31
  5750   002CE0                     __ptext31:
  5751                           	callstack 0
  5752   002CE0                     _EUSART_TX_ISR:
  5753                           	callstack 25
  5754   002CE0                     
  5755                           ;MCAL_Layer/UART/hal_uart.c: 254:     (PIE1bits.TXIE = 0);
  5756   002CE0  989D               	bcf	157,4,c	;volatile
  5757   002CE2  0012               	return		;funcret
  5758   002CE4                     __end_of_EUSART_TX_ISR:
  5759                           	callstack 0
  5760                           
  5761 ;; *************** function _EUSART_RX_ISR *****************
  5762 ;; Defined at:
  5763 ;;		line 260 in file "MCAL_Layer/UART/hal_uart.c"
  5764 ;; Parameters:    Size  Location     Type
  5765 ;;		None
  5766 ;; Auto vars:     Size  Location     Type
  5767 ;;		None
  5768 ;; Return value:  Size  Location     Type
  5769 ;;                  1    wreg      void 
  5770 ;; Registers used:
  5771 ;;		wreg, status,2, status,0
  5772 ;; Tracked objects:
  5773 ;;		On entry : 0/0
  5774 ;;		On exit  : 0/0
  5775 ;;		Unchanged: 0/0
  5776 ;; Data sizes:     COMRAM   BANK0   BANK1   BANK2   BANK3   BANK4   BANK5   BANK6   BANK7   BANK8   BANK9  BANK10  BANK1
      +1  BANK12  BANK13  BANK14  BANK15
  5777 ;;      Params:         0       0       0       0       0       0       0       0       0       0       0       0       
      +0       0       0       0       0
  5778 ;;      Locals:         0       0       0       0       0       0       0       0       0       0       0       0       
      +0       0       0       0       0
  5779 ;;      Temps:          0       0       0       0       0       0       0       0       0       0       0       0       
      +0       0       0       0       0
  5780 ;;      Totals:         0       0       0       0       0       0       0       0       0       0       0       0       
      +0       0       0       0       0
  5781 ;;Total ram usage:        0 bytes
  5782 ;; Hardware stack levels used: 1
  5783 ;; This function calls:
  5784 ;;		Nothing
  5785 ;; This function is called by:
  5786 ;;		_Interrupt_Manager
  5787 ;; This function uses a non-reentrant model
  5788 ;;
  5789                           
  5790                           	psect	text32
  5791   002CF0                     __ptext32:
  5792                           	callstack 0
  5793   002CF0                     _EUSART_RX_ISR:
  5794                           	callstack 25
  5795   002CF0  0012               	return		;funcret
  5796   002CF2                     __end_of_EUSART_RX_ISR:
  5797                           	callstack 0
  5798                           
  5799 ;; *************** function _CCP2_ISR *****************
  5800 ;; Defined at:
  5801 ;;		line 439 in file "MCAL_Layer/CCP1/hal_ccp.c"
  5802 ;; Parameters:    Size  Location     Type
  5803 ;;		None
  5804 ;; Auto vars:     Size  Location     Type
  5805 ;;		None
  5806 ;; Return value:  Size  Location     Type
  5807 ;;                  1    wreg      void 
  5808 ;; Registers used:
  5809 ;;		None
  5810 ;; Tracked objects:
  5811 ;;		On entry : 0/0
  5812 ;;		On exit  : 0/0
  5813 ;;		Unchanged: 0/0
  5814 ;; Data sizes:     COMRAM   BANK0   BANK1   BANK2   BANK3   BANK4   BANK5   BANK6   BANK7   BANK8   BANK9  BANK10  BANK1
      +1  BANK12  BANK13  BANK14  BANK15
  5815 ;;      Params:         0       0       0       0       0       0       0       0       0       0       0       0       
      +0       0       0       0       0
  5816 ;;      Locals:         0       0       0       0       0       0       0       0       0       0       0       0       
      +0       0       0       0       0
  5817 ;;      Temps:          0       0       0       0       0       0       0       0       0       0       0       0       
      +0       0       0       0       0
  5818 ;;      Totals:         0       0       0       0       0       0       0       0       0       0       0       0       
      +0       0       0       0       0
  5819 ;;Total ram usage:        0 bytes
  5820 ;; Hardware stack levels used: 1
  5821 ;; This function calls:
  5822 ;;		Nothing
  5823 ;; This function is called by:
  5824 ;;		_Interrupt_Manager
  5825 ;; This function uses a non-reentrant model
  5826 ;;
  5827                           
  5828                           	psect	text33
  5829   002CE4                     __ptext33:
  5830                           	callstack 0
  5831   002CE4                     _CCP2_ISR:
  5832                           	callstack 25
  5833   002CE4                     
  5834                           ;MCAL_Layer/CCP1/hal_ccp.c: 440: (PIR2bits.CCP2IF = 0);
  5835   002CE4  90A1               	bcf	161,0,c	;volatile
  5836   002CE6  0012               	return		;funcret
  5837   002CE8                     __end_of_CCP2_ISR:
  5838                           	callstack 0
  5839                           
  5840 ;; *************** function _CCP1_ISR *****************
  5841 ;; Defined at:
  5842 ;;		line 432 in file "MCAL_Layer/CCP1/hal_ccp.c"
  5843 ;; Parameters:    Size  Location     Type
  5844 ;;		None
  5845 ;; Auto vars:     Size  Location     Type
  5846 ;;		None
  5847 ;; Return value:  Size  Location     Type
  5848 ;;                  1    wreg      void 
  5849 ;; Registers used:
  5850 ;;		None
  5851 ;; Tracked objects:
  5852 ;;		On entry : 0/0
  5853 ;;		On exit  : 0/0
  5854 ;;		Unchanged: 0/0
  5855 ;; Data sizes:     COMRAM   BANK0   BANK1   BANK2   BANK3   BANK4   BANK5   BANK6   BANK7   BANK8   BANK9  BANK10  BANK1
      +1  BANK12  BANK13  BANK14  BANK15
  5856 ;;      Params:         0       0       0       0       0       0       0       0       0       0       0       0       
      +0       0       0       0       0
  5857 ;;      Locals:         0       0       0       0       0       0       0       0       0       0       0       0       
      +0       0       0       0       0
  5858 ;;      Temps:          0       0       0       0       0       0       0       0       0       0       0       0       
      +0       0       0       0       0
  5859 ;;      Totals:         0       0       0       0       0       0       0       0       0       0       0       0       
      +0       0       0       0       0
  5860 ;;Total ram usage:        0 bytes
  5861 ;; Hardware stack levels used: 1
  5862 ;; This function calls:
  5863 ;;		Nothing
  5864 ;; This function is called by:
  5865 ;;		_Interrupt_Manager
  5866 ;; This function uses a non-reentrant model
  5867 ;;
  5868                           
  5869                           	psect	text34
  5870   002CE8                     __ptext34:
  5871                           	callstack 0
  5872   002CE8                     _CCP1_ISR:
  5873                           	callstack 25
  5874   002CE8                     
  5875                           ;MCAL_Layer/CCP1/hal_ccp.c: 433: (PIR1bits.CCP1IF = 0);
  5876   002CE8  949E               	bcf	158,2,c	;volatile
  5877   002CEA  0012               	return		;funcret
  5878   002CEC                     __end_of_CCP1_ISR:
  5879                           	callstack 0
  5880                           
  5881 ;; *************** function _ADC_ISR *****************
  5882 ;; Defined at:
  5883 ;;		line 265 in file "MCAL_Layer/ADC/hal_adc.c"
  5884 ;; Parameters:    Size  Location     Type
  5885 ;;		None
  5886 ;; Auto vars:     Size  Location     Type
  5887 ;;		None
  5888 ;; Return value:  Size  Location     Type
  5889 ;;                  1    wreg      void 
  5890 ;; Registers used:
  5891 ;;		None
  5892 ;; Tracked objects:
  5893 ;;		On entry : 0/0
  5894 ;;		On exit  : 0/0
  5895 ;;		Unchanged: 0/0
  5896 ;; Data sizes:     COMRAM   BANK0   BANK1   BANK2   BANK3   BANK4   BANK5   BANK6   BANK7   BANK8   BANK9  BANK10  BANK1
      +1  BANK12  BANK13  BANK14  BANK15
  5897 ;;      Params:         0       0       0       0       0       0       0       0       0       0       0       0       
      +0       0       0       0       0
  5898 ;;      Locals:         0       0       0       0       0       0       0       0       0       0       0       0       
      +0       0       0       0       0
  5899 ;;      Temps:          0       0       0       0       0       0       0       0       0       0       0       0       
      +0       0       0       0       0
  5900 ;;      Totals:         0       0       0       0       0       0       0       0       0       0       0       0       
      +0       0       0       0       0
  5901 ;;Total ram usage:        0 bytes
  5902 ;; Hardware stack levels used: 1
  5903 ;; This function calls:
  5904 ;;		Nothing
  5905 ;; This function is called by:
  5906 ;;		_Interrupt_Manager
  5907 ;; This function uses a non-reentrant model
  5908 ;;
  5909                           
  5910                           	psect	text35
  5911   002CEC                     __ptext35:
  5912                           	callstack 0
  5913   002CEC                     _ADC_ISR:
  5914                           	callstack 25
  5915   002CEC                     
  5916                           ;MCAL_Layer/ADC/hal_adc.c: 266: (PIR1bits.ADIF = 0);
  5917   002CEC  9C9E               	bcf	158,6,c	;volatile
  5918   002CEE  0012               	return		;funcret
  5919   002CF0                     __end_of_ADC_ISR:
  5920                           	callstack 0
  5921                           
  5922                           	psect	rparam
  5923   000000                     
  5924                           	psect	temp
  5925   00007D                     btemp:
  5926                           	callstack 0
  5927   00007D                     	ds	1
  5928   000000                     int$flags	set	btemp
  5929   000000                     wtemp8	set	btemp+1
  5930   000000                     ttemp5	set	btemp+1
  5931   000000                     ttemp6	set	btemp+4
  5932   000000                     ttemp7	set	btemp+8
  5933                           
  5934                           	psect	config
  5935                           
  5936                           ; Padding undefined space
  5937   300000                     	org	3145728
  5938   300000  FF                 	db	255
  5939                           
  5940                           ;Config register CONFIG1H @ 0x300001
  5941                           ;	Oscillator Selection bits
  5942                           ;	OSC = HS, HS oscillator
  5943                           ;	Fail-Safe Clock Monitor Enable bit
  5944                           ;	FCMEN = OFF, Fail-Safe Clock Monitor disabled
  5945                           ;	Internal/External Oscillator Switchover bit
  5946                           ;	IESO = OFF, Oscillator Switchover mode disabled
  5947   300001                     	org	3145729
  5948   300001  02                 	db	2
  5949                           
  5950                           ;Config register CONFIG2L @ 0x300002
  5951                           ;	Power-up Timer Enable bit
  5952                           ;	PWRT = OFF, PWRT disabled
  5953                           ;	Brown-out Reset Enable bits
  5954                           ;	BOREN = SBORDIS, Brown-out Reset enabled in hardware only (SBOREN is disabled)
  5955                           ;	Brown Out Reset Voltage bits
  5956                           ;	BORV = 3, Minimum setting
  5957   300002                     	org	3145730
  5958   300002  1F                 	db	31
  5959                           
  5960                           ;Config register CONFIG2H @ 0x300003
  5961                           ;	Watchdog Timer Enable bit
  5962                           ;	WDT = OFF, WDT disabled (control is placed on the SWDTEN bit)
  5963                           ;	Watchdog Timer Postscale Select bits
  5964                           ;	WDTPS = 32768, 1:32768
  5965   300003                     	org	3145731
  5966   300003  1E                 	db	30
  5967                           
  5968                           ; Padding undefined space
  5969   300004                     	org	3145732
  5970   300004  FF                 	db	255
  5971                           
  5972                           ;Config register CONFIG3H @ 0x300005
  5973                           ;	CCP2 MUX bit
  5974                           ;	CCP2MX = PORTC, CCP2 input/output is multiplexed with RC1
  5975                           ;	PORTB A/D Enable bit
  5976                           ;	PBADEN = OFF, PORTB<4:0> pins are configured as digital I/O on Reset
  5977                           ;	Low-Power Timer1 Oscillator Enable bit
  5978                           ;	LPT1OSC = OFF, Timer1 configured for higher power operation
  5979                           ;	MCLR Pin Enable bit
  5980                           ;	MCLRE = ON, MCLR pin enabled; RE3 input pin disabled
  5981   300005                     	org	3145733
  5982   300005  81                 	db	129
  5983                           
  5984                           ;Config register CONFIG4L @ 0x300006
  5985                           ;	Stack Full/Underflow Reset Enable bit
  5986                           ;	STVREN = ON, Stack full/underflow will cause Reset
  5987                           ;	Single-Supply ICSP Enable bit
  5988                           ;	LVP = OFF, Single-Supply ICSP disabled
  5989                           ;	Extended Instruction Set Enable bit
  5990                           ;	XINST = OFF, Instruction set extension and Indexed Addressing mode disabled (Legacy mo
      +                          de)
  5991                           ;	Background Debugger Enable bit
  5992                           ;	DEBUG = 0x1, unprogrammed default
  5993   300006                     	org	3145734
  5994   300006  81                 	db	129
  5995                           
  5996                           ; Padding undefined space
  5997   300007                     	org	3145735
  5998   300007  FF                 	db	255
  5999                           
  6000                           ;Config register CONFIG5L @ 0x300008
  6001                           ;	Code Protection bit
  6002                           ;	CP0 = OFF, Block 0 (000800-003FFFh) not code-protected
  6003                           ;	Code Protection bit
  6004                           ;	CP1 = OFF, Block 1 (004000-007FFFh) not code-protected
  6005                           ;	Code Protection bit
  6006                           ;	CP2 = OFF, Block 2 (008000-00BFFFh) not code-protected
  6007                           ;	Code Protection bit
  6008                           ;	CP3 = OFF, Block 3 (00C000-00FFFFh) not code-protected
  6009   300008                     	org	3145736
  6010   300008  0F                 	db	15
  6011                           
  6012                           ;Config register CONFIG5H @ 0x300009
  6013                           ;	Boot Block Code Protection bit
  6014                           ;	CPB = OFF, Boot block (000000-0007FFh) not code-protected
  6015                           ;	Data EEPROM Code Protection bit
  6016                           ;	CPD = OFF, Data EEPROM not code-protected
  6017   300009                     	org	3145737
  6018   300009  C0                 	db	192
  6019                           
  6020                           ;Config register CONFIG6L @ 0x30000A
  6021                           ;	Write Protection bit
  6022                           ;	WRT0 = OFF, Block 0 (000800-003FFFh) not write-protected
  6023                           ;	Write Protection bit
  6024                           ;	WRT1 = OFF, Block 1 (004000-007FFFh) not write-protected
  6025                           ;	Write Protection bit
  6026                           ;	WRT2 = OFF, Block 2 (008000-00BFFFh) not write-protected
  6027                           ;	Write Protection bit
  6028                           ;	WRT3 = OFF, Block 3 (00C000-00FFFFh) not write-protected
  6029   30000A                     	org	3145738
  6030   30000A  0F                 	db	15
  6031                           
  6032                           ;Config register CONFIG6H @ 0x30000B
  6033                           ;	Configuration Register Write Protection bit
  6034                           ;	WRTC = OFF, Configuration registers (300000-3000FFh) not write-protected
  6035                           ;	Boot Block Write Protection bit
  6036                           ;	WRTB = OFF, Boot Block (000000-0007FFh) not write-protected
  6037                           ;	Data EEPROM Write Protection bit
  6038                           ;	WRTD = OFF, Data EEPROM not write-protected
  6039   30000B                     	org	3145739
  6040   30000B  E0                 	db	224
  6041                           
  6042                           ;Config register CONFIG7L @ 0x30000C
  6043                           ;	Table Read Protection bit
  6044                           ;	EBTR0 = OFF, Block 0 (000800-003FFFh) not protected from table reads executed in other
      +                           blocks
  6045                           ;	Table Read Protection bit
  6046                           ;	EBTR1 = OFF, Block 1 (004000-007FFFh) not protected from table reads executed in other
      +                           blocks
  6047                           ;	Table Read Protection bit
  6048                           ;	EBTR2 = OFF, Block 2 (008000-00BFFFh) not protected from table reads executed in other
      +                           blocks
  6049                           ;	Table Read Protection bit
  6050                           ;	EBTR3 = OFF, Block 3 (00C000-00FFFFh) not protected from table reads executed in other
      +                           blocks
  6051   30000C                     	org	3145740
  6052   30000C  0F                 	db	15
  6053                           
  6054                           ;Config register CONFIG7H @ 0x30000D
  6055                           ;	Boot Block Table Read Protection bit
  6056                           ;	EBTRB = OFF, Boot Block (000000-0007FFh) not protected from table reads executed in ot
      +                          her blocks
  6057   30000D                     	org	3145741
  6058   30000D  40                 	db	64
  6059                           tosu	equ	0xFFF
  6060                           tosh	equ	0xFFE
  6061                           tosl	equ	0xFFD
  6062                           stkptr	equ	0xFFC
  6063                           pclatu	equ	0xFFB
  6064                           pclath	equ	0xFFA
  6065                           pcl	equ	0xFF9
  6066                           tblptru	equ	0xFF8
  6067                           tblptrh	equ	0xFF7
  6068                           tblptrl	equ	0xFF6
  6069                           tablat	equ	0xFF5
  6070                           prodh	equ	0xFF4
  6071                           prodl	equ	0xFF3
  6072                           indf0	equ	0xFEF
  6073                           postinc0	equ	0xFEE
  6074                           postdec0	equ	0xFED
  6075                           preinc0	equ	0xFEC
  6076                           plusw0	equ	0xFEB
  6077                           fsr0h	equ	0xFEA
  6078                           fsr0l	equ	0xFE9
  6079                           wreg	equ	0xFE8
  6080                           indf1	equ	0xFE7
  6081                           postinc1	equ	0xFE6
  6082                           postdec1	equ	0xFE5
  6083                           preinc1	equ	0xFE4
  6084                           plusw1	equ	0xFE3
  6085                           fsr1h	equ	0xFE2
  6086                           fsr1l	equ	0xFE1
  6087                           bsr	equ	0xFE0
  6088                           indf2	equ	0xFDF
  6089                           postinc2	equ	0xFDE
  6090                           postdec2	equ	0xFDD
  6091                           preinc2	equ	0xFDC
  6092                           plusw2	equ	0xFDB
  6093                           fsr2h	equ	0xFDA
  6094                           fsr2l	equ	0xFD9
  6095                           status	equ	0xFD8

Data Sizes:
    Strings     24
    Constant    0
    Data        100
    BSS         91
    Persistent  0
    Stack       0

Auto Spaces:
    Space          Size  Autos    Used
    COMRAM          126     71     124
    BANK0           128      2      92
    BANK1           256      0      48
    BANK2           256      0       0
    BANK3           256      0       0
    BANK4           256      0       0
    BANK5           256      0       0
    BANK6           256      0       0
    BANK7           256      0       0
    BANK8           256      0       0
    BANK9           256      0       0
    BANK10          256      0       0
    BANK11          256      0       0
    BANK12          256      0       0
    BANK13          256      0       0
    BANK14          256      0       0
    BANK15          128      0       0

Pointer List with Targets:

    vfprintf$2	PTR PTR void  size(2) Largest target is 2
		 -> sprintf@ap(COMRAM[2]), 

    vfprintf$1	PTR const unsigned char  size(2) Largest target is 3
		 -> STR_6(CODE[3]), STR_4(CODE[3]), STR_2(CODE[3]), 

    vfprintf$0	PTR struct _IO_FILE size(2) Largest target is 12
		 -> sprintf@f(COMRAM[12]), 

    S4273$source	PTR const unsigned char  size(2) Largest target is 0

    f...source	PTR const unsigned char  size(2) Largest target is 0

    S4273$buffer	PTR unsigned char  size(2) Largest target is 0

    f...buffer	PTR unsigned char  size(2) Largest target is 0

    EUSART_Overrun_error_Interrupt_Hundeler	PTR FTN()void  size(2) Largest target is 1
		 -> NULL(), NULL(NULL[0]), 

    EUSART_Framig_error_Interrupt_Hundeler	PTR FTN()void  size(2) Largest target is 1
		 -> NULL(), NULL(NULL[0]), 

    EUSART_RX_Interrupt_Hundeler	PTR FTN()void  size(2) Largest target is 1
		 -> NULL(), NULL(NULL[0]), 

    EUSART_ASYNC_RX_Init@eusar.EUSART_Overrun_Error_HUNDELER	PTR FTN()void  size(2) Largest target is 0
		 -> NULL(NULL[0]), 

    EUSART_ASYNC_RX_Init@eusar.EUSART_Framming_Error_HUNDELER	PTR FTN()void  size(2) Largest target is 0
		 -> NULL(NULL[0]), 

    EUSART_ASYNC_RX_Init@eusar.EUSART_RX_DEFUALTINTERRUPT_HUNDELER	PTR FTN()void  size(2) Largest target is 0
		 -> NULL(NULL[0]), 

    EUSART_ASYNC_RX_Init@eusar.EUSART_TX_DEFUALTINTERRUPT_HUNDELER	PTR FTN()void  size(2) Largest target is 0
		 -> NULL(NULL[0]), 

    EUSART_ASYNC_RX_Init@eusar	PTR const struct . size(2) Largest target is 18
		 -> usart_obj(BANK0[18]), 

    EUSART_TX_Interrupt_Hundeler	PTR FTN()void  size(2) Largest target is 1
		 -> NULL(), NULL(NULL[0]), 

    EUSART_ASYNC_TX_Init@eusar.EUSART_Overrun_Error_HUNDELER	PTR FTN()void  size(2) Largest target is 0
		 -> NULL(NULL[0]), 

    EUSART_ASYNC_TX_Init@eusar.EUSART_Framming_Error_HUNDELER	PTR FTN()void  size(2) Largest target is 0
		 -> NULL(NULL[0]), 

    EUSART_ASYNC_TX_Init@eusar.EUSART_RX_DEFUALTINTERRUPT_HUNDELER	PTR FTN()void  size(2) Largest target is 0
		 -> NULL(NULL[0]), 

    EUSART_ASYNC_TX_Init@eusar.EUSART_TX_DEFUALTINTERRUPT_HUNDELER	PTR FTN()void  size(2) Largest target is 0
		 -> NULL(NULL[0]), 

    EUSART_ASYNC_TX_Init@eusar	PTR const struct . size(2) Largest target is 18
		 -> usart_obj(BANK0[18]), 

    EUSART_BaudRate_Calculations@eusar.EUSART_Overrun_Error_HUNDELER	PTR FTN()void  size(2) Largest target is 0
		 -> NULL(NULL[0]), 

    EUSART_BaudRate_Calculations@eusar.EUSART_Framming_Error_HUNDELER	PTR FTN()void  size(2) Largest target is 0
		 -> NULL(NULL[0]), 

    EUSART_BaudRate_Calculations@eusar.EUSART_RX_DEFUALTINTERRUPT_HUNDELER	PTR FTN()void  size(2) Largest target is 0
		 -> NULL(NULL[0]), 

    EUSART_BaudRate_Calculations@eusar.EUSART_TX_DEFUALTINTERRUPT_HUNDELER	PTR FTN()void  size(2) Largest target is 0
		 -> NULL(NULL[0]), 

    EUSART_BaudRate_Calculations@eusar	PTR const struct . size(2) Largest target is 18
		 -> usart_obj(BANK0[18]), 

    USART_ASYNC_WriteString_Blocking@data	PTR unsigned char  size(2) Largest target is 9
		 -> STR_8(CODE[9]), STR_7(CODE[9]), 

    USART_ASYNC_ReadByte_Non_Blocking@data	PTR unsigned char  size(2) Largest target is 1
		 -> rec_usart(COMRAM[1]), 

    USART_ASYNC_Init@eusar	PTR const struct . size(2) Largest target is 18
		 -> usart_obj(BANK0[18]), 

    S3253$EUSART_Overrun_Error_HUNDELER	PTR FTN()void  size(2) Largest target is 0
		 -> NULL(NULL[0]), 

    usart_obj.EUSART_Overrun_Error_HUNDELER	PTR FTN()void  size(2) Largest target is 0
		 -> NULL(NULL[0]), 

    S3253$EUSART_Framming_Error_HUNDELER	PTR FTN()void  size(2) Largest target is 0
		 -> NULL(NULL[0]), 

    usart_obj.EUSART_Framming_Error_HUNDELER	PTR FTN()void  size(2) Largest target is 0
		 -> NULL(NULL[0]), 

    S3253$EUSART_RX_DEFUALTINTERRUPT_HUNDELER	PTR FTN()void  size(2) Largest target is 0
		 -> NULL(NULL[0]), 

    usart_obj.EUSART_RX_DEFUALTINTERRUPT_HUNDELER	PTR FTN()void  size(2) Largest target is 0
		 -> NULL(NULL[0]), 

    S3253$EUSART_TX_DEFUALTINTERRUPT_HUNDELER	PTR FTN()void  size(2) Largest target is 0
		 -> NULL(NULL[0]), 

    usart_obj.EUSART_TX_DEFUALTINTERRUPT_HUNDELER	PTR FTN()void  size(2) Largest target is 0
		 -> NULL(NULL[0]), 

    Timer3_Mode_Select@timer3.TMR3_Interrupt_Hundeler	PTR FTN()void  size(2) Largest target is 0

    TMR3_Interrupt_Hundeler	PTR FTN()void  size(2) Largest target is 1
		 -> NULL(), 

    S3067$TMR3_Interrupt_Hundeler	PTR FTN()void  size(2) Largest target is 0

    Timer3_Init@timer3.TMR3_Interrupt_Hundeler	PTR FTN()void  size(2) Largest target is 0

    TMR2_Interrupt_Hundeler	PTR FTN()void  size(2) Largest target is 1
		 -> NULL(), 

    S2936$TMR2_Interrupt_Hundeler	PTR FTN()void  size(2) Largest target is 0

    Timer2_Init@timer2.TMR2_Interrupt_Hundeler	PTR FTN()void  size(2) Largest target is 0

    Timer1_Mode_Select@timer1.TMR1_Interrupt_Hundeler	PTR FTN()void  size(2) Largest target is 0

    TMR1_Interrupt_Hundeler	PTR FTN()void  size(2) Largest target is 1
		 -> NULL(), 

    S2747$TMR1_Interrupt_Hundeler	PTR FTN()void  size(2) Largest target is 0

    Timer1_Init@timer1.TMR1_Interrupt_Hundeler	PTR FTN()void  size(2) Largest target is 0

    Timer0_Register_Size@timer1.TMR0_Interrupt_Hundeler	PTR FTN()void  size(2) Largest target is 0

    Timer0_Mode_Select@timer1.TMR0_Interrupt_Hundeler	PTR FTN()void  size(2) Largest target is 0

    Timer0_Prescaler_Config@timer1.TMR0_Interrupt_Hundeler	PTR FTN()void  size(2) Largest target is 0

    TMR0_Interrupt_Hundeler	PTR FTN()void  size(2) Largest target is 1
		 -> NULL(), 

    S2577$TMR0_Interrupt_Hundeler	PTR FTN()void  size(2) Largest target is 0

    Timer0_Init@timer1.TMR0_Interrupt_Hundeler	PTR FTN()void  size(2) Largest target is 0

    Interrupt_INTx_SetHandular@int_obj.Ext_Intterrupt	PTR FTN()void  size(2) Largest target is 0

    INT2_Interrupt_Handular	PTR FTN()void  size(2) Largest target is 1
		 -> NULL(), 

    INT1_Interrupt_Handular	PTR FTN()void  size(2) Largest target is 1
		 -> NULL(), 

    INT0_Interrupt_Handular	PTR FTN()void  size(2) Largest target is 1
		 -> NULL(), 

    Interrupt_INTx_Clear_Flag@int_obj.Ext_Intterrupt	PTR FTN()void  size(2) Largest target is 0

    Interrupt_INTx_Pin_Init@int_obj.Ext_Intterrupt	PTR FTN()void  size(2) Largest target is 0

    Interrupt_INTx_Edge_Init@int_obj.Ext_Intterrupt	PTR FTN()void  size(2) Largest target is 0

    Interrupt_INTx_Disable@int_obj.Ext_Intterrupt	PTR FTN()void  size(2) Largest target is 0

    S1973$Ext_Intterrupt	PTR FTN()void  size(2) Largest target is 0

    Interrupt_INTx_Enable@int_obj.Ext_Intterrupt	PTR FTN()void  size(2) Largest target is 0

    RB7_Interrupt_Handular_LOW	PTR FTN()void  size(2) Largest target is 1
		 -> NULL(), 

    RB7_Interrupt_Handular_HIGH	PTR FTN()void  size(2) Largest target is 1
		 -> NULL(), 

    RB6_Interrupt_Handular_LOW	PTR FTN()void  size(2) Largest target is 1
		 -> NULL(), 

    RB6_Interrupt_Handular_HIGH	PTR FTN()void  size(2) Largest target is 1
		 -> NULL(), 

    RB5_Interrupt_Handular_LOW	PTR FTN()void  size(2) Largest target is 1
		 -> NULL(), 

    RB5_Interrupt_Handular_HIGH	PTR FTN()void  size(2) Largest target is 1
		 -> NULL(), 

    RB4_Interrupt_Handular_LOW	PTR FTN()void  size(2) Largest target is 1
		 -> NULL(), 

    RB4_Interrupt_Handular_HIGH	PTR FTN()void  size(2) Largest target is 1
		 -> NULL(), 

    S2011$Ext_Intterrupt_LOW	PTR FTN()void  size(2) Largest target is 0

    Interrupt_RBx_Initialization@int_obj.Ext_Intterrupt_LOW	PTR FTN()void  size(2) Largest target is 0

    S2011$Ext_Intterrupt_HIGH	PTR FTN()void  size(2) Largest target is 0

    Interrupt_RBx_Initialization@int_obj.Ext_Intterrupt_HIGH	PTR FTN()void  size(2) Largest target is 0

    gpio_pin_intialize@pin_config	PTR const struct . size(2) Largest target is 6
		 -> lcd_1.lcd_data(BANK0[4]), lcd_1(BANK0[6]), Relay_Initialize@pin_obj(COMRAM[1]), led_initialize@pin_obj(COMRAM[1]), 

    gpio_pin_toggle_logic@pin_config	PTR const struct . size(2) Largest target is 1
		 -> led_toggle@pin_obj(COMRAM[1]), 

    gpio_pin_write_logic@pin_config	PTR const struct . size(2) Largest target is 6
		 -> lcd_4_bit_send_command@lcd.lcd_data(COMRAM[8]), lcd_4_bit_send_char_data@lcd.lcd_data(COMRAM[8]), lcd_4_bit_send_data_position@lcd.lcd_data(COMRAM[8]), lcd_4_bit_send_string@lcd.lcd_data(COMRAM[8]), 
		 -> lcd_4_bit_send_string_position@lcd.lcd_data(COMRAM[8]), lcd_1.lcd_data(BANK0[8]), lcd_1.lcd_data(BANK0[4]), lcd_1(BANK0[6]), 
		 -> Relay_Turn_OFF@pin_obj(COMRAM[1]), Relay_Turn_ON@pin_obj(COMRAM[1]), Relay_Initialize@pin_obj(COMRAM[1]), led_turn_off@pin_obj(COMRAM[1]), 
		 -> led_turn_on@pin_obj(COMRAM[1]), led_initialize@pin_obj(COMRAM[1]), lcd_8_bit_send_command@lcd(COMRAM[2]), lcd_4_bit_send_string_position@lcd(COMRAM[2]), 
		 -> lcd_4_bit_send_string@lcd(COMRAM[2]), lcd_4_bit_send_data_position@lcd(COMRAM[2]), lcd_4_bit_send_char_data@lcd(COMRAM[2]), lcd_4_bit_send_command@lcd(COMRAM[2]), 

    gpio_pin_direction_intialize@pin_config	PTR const struct . size(2) Largest target is 6
		 -> lcd_1.lcd_data(BANK0[4]), lcd_1(BANK0[6]), Relay_Initialize@pin_obj(COMRAM[1]), led_initialize@pin_obj(COMRAM[1]), 

    port_registers	PTR volatile unsigned char [5] size(2) Largest target is 1
		 -> PORTE(BITBIGSFRlllll[1]), PORTD(BITBIGSFRlllll[1]), PORTC(BITBIGSFRlllll[1]), PORTB(BITBIGSFRlllll[1]), 
		 -> PORTA(BITBIGSFRlllll[1]), 

    lat_registers	PTR volatile unsigned char [5] size(2) Largest target is 1
		 -> LATE(BITBIGSFRllllh[1]), LATD(BITBIGSFRllllh[1]), LATC(BITBIGSFRllllh[1]), LATB(BITBIGSFRllllh[1]), 
		 -> LATA(BITBIGSFRlllll[1]), 

    tris_registers	PTR volatile unsigned char [5] size(2) Largest target is 1
		 -> TRISD(ABS[1]), TRISC(ABS[1]), TRISB(ABS[1]), TRISE(ABS[1]), 
		 -> TRISA(BITBIGSFRlllll[1]), 

    Set_Capture_Mode@ccp_obj.CCP2_Interrupt_Hundeler	PTR FTN()void  size(2) Largest target is 0

    Set_Capture_Mode@ccp_obj.CCP1_Interrupt_Hundeler	PTR FTN()void  size(2) Largest target is 0

    Set_Compare_Mode@ccp_obj.CCP2_Interrupt_Hundeler	PTR FTN()void  size(2) Largest target is 0

    Set_Compare_Mode@ccp_obj.CCP1_Interrupt_Hundeler	PTR FTN()void  size(2) Largest target is 0

    ccp_capture_mode_timer_select@ccp_obj.CCP2_Interrupt_Hundeler	PTR FTN()void  size(2) Largest target is 0

    ccp_capture_mode_timer_select@ccp_obj.CCP1_Interrupt_Hundeler	PTR FTN()void  size(2) Largest target is 0

    CCP_PWM_Stop@ccp_obj.CCP2_Interrupt_Hundeler	PTR FTN()void  size(2) Largest target is 0

    CCP_PWM_Stop@ccp_obj.CCP1_Interrupt_Hundeler	PTR FTN()void  size(2) Largest target is 0

    CCP_PWM_Start@ccp_obj.CCP2_Interrupt_Hundeler	PTR FTN()void  size(2) Largest target is 0

    CCP_PWM_Start@ccp_obj.CCP1_Interrupt_Hundeler	PTR FTN()void  size(2) Largest target is 0

    CCP_PWM_Set_Duty@ccp_obj.CCP2_Interrupt_Hundeler	PTR FTN()void  size(2) Largest target is 0

    CCP_PWM_Set_Duty@ccp_obj.CCP1_Interrupt_Hundeler	PTR FTN()void  size(2) Largest target is 0

    CCP_PWM_Deinit@ccp_obj.CCP2_Interrupt_Hundeler	PTR FTN()void  size(2) Largest target is 0

    CCP_PWM_Deinit@ccp_obj.CCP1_Interrupt_Hundeler	PTR FTN()void  size(2) Largest target is 0

    CCP_PWM_Init@ccp_obj.CCP2_Interrupt_Hundeler	PTR FTN()void  size(2) Largest target is 0

    CCP_PWM_Init@ccp_obj.CCP1_Interrupt_Hundeler	PTR FTN()void  size(2) Largest target is 0

    CCP1_Compare_Mode_Set_Value@ccp_obj.CCP2_Interrupt_Hundeler	PTR FTN()void  size(2) Largest target is 0

    CCP1_Compare_Mode_Set_Value@ccp_obj.CCP1_Interrupt_Hundeler	PTR FTN()void  size(2) Largest target is 0

    CCP1_COMPARE_Deinit@ccp_obj.CCP2_Interrupt_Hundeler	PTR FTN()void  size(2) Largest target is 0

    CCP1_COMPARE_Deinit@ccp_obj.CCP1_Interrupt_Hundeler	PTR FTN()void  size(2) Largest target is 0

    CCP_COMPARE_Init@ccp_obj.CCP2_Interrupt_Hundeler	PTR FTN()void  size(2) Largest target is 0

    CCP_COMPARE_Init@ccp_obj.CCP1_Interrupt_Hundeler	PTR FTN()void  size(2) Largest target is 0

    CCP1_CAPTURE_Deinit@ccp_obj.CCP2_Interrupt_Hundeler	PTR FTN()void  size(2) Largest target is 0

    CCP1_CAPTURE_Deinit@ccp_obj.CCP1_Interrupt_Hundeler	PTR FTN()void  size(2) Largest target is 0

    CCP2_Interrupt_Hundeler	PTR FTN()void  size(2) Largest target is 1
		 -> NULL(), 

    CCP1_Interrupt_Hundeler	PTR FTN()void  size(2) Largest target is 1
		 -> NULL(), 

    S1143$CCP2_Interrupt_Hundeler	PTR FTN()void  size(2) Largest target is 0

    CCP_CAPTURE_Init@ccp_obj.CCP2_Interrupt_Hundeler	PTR FTN()void  size(2) Largest target is 0

    S1143$CCP1_Interrupt_Hundeler	PTR FTN()void  size(2) Largest target is 0

    CCP_CAPTURE_Init@ccp_obj.CCP1_Interrupt_Hundeler	PTR FTN()void  size(2) Largest target is 0

    select_voltage_reference@_adc_obj.ADC_INTERRUPTHUNDLER	PTR FTN()void  size(2) Largest target is 0

    select_result_format@_adc_obj.ADC_INTERRUPTHUNDLER	PTR FTN()void  size(2) Largest target is 0

    ADC_GetConversion_Result@_adc_obj.ADC_INTERRUPTHUNDLER	PTR FTN()void  size(2) Largest target is 0

    ADC_Interrupt_Handular	PTR FTN()void  size(2) Largest target is 1
		 -> NULL(), 

    S725$ADC_INTERRUPTHUNDLER	PTR FTN()void  size(2) Largest target is 0

    ADC_Init@_adc_obj.ADC_INTERRUPTHUNDLER	PTR FTN()void  size(2) Largest target is 0

    led_toggle@led	PTR const struct . size(2) Largest target is 1
		 -> led2(COMRAM[1]), led1(COMRAM[1]), 

    led_initialize@led	PTR const struct . size(2) Largest target is 1
		 -> led2(COMRAM[1]), led1(COMRAM[1]), 

    sp__memset	PTR void  size(2) Largest target is 0

    keypad_btn_values	PTR const unsigned char [4][4] size(3) Largest target is 65535
		 -> ROM(CODE[65535]), 


Critical Paths under _main in COMRAM

    _usart_int_init->_USART_ASYNC_Init
    _USART_ASYNC_Init->_EUSART_BaudRate_Calculations
    _EUSART_BaudRate_Calculations->___fladd
    ___fldiv->___xxtofl
    ___fladd->___fldiv
    _led_toggle->_gpio_pin_toggle_logic
    _led_initialize->_gpio_pin_intialize
    _gpio_pin_intialize->_gpio_pin_write_logic
    _USART_ASYNC_WriteString_Blocking->_USART_ASYNC_WriteByte_Blocking

Critical Paths under _Interrupt_Manager in COMRAM

    _Interrupt_Manager->_RB4_ISR
    _Interrupt_Manager->_RB5_ISR
    _Interrupt_Manager->_RB6_ISR
    _Interrupt_Manager->_RB7_ISR

Critical Paths under _main in BANK0

    None.

Critical Paths under _Interrupt_Manager in BANK0

    None.

Critical Paths under _main in BANK1

    None.

Critical Paths under _Interrupt_Manager in BANK1

    None.

Critical Paths under _main in BANK2

    None.

Critical Paths under _Interrupt_Manager in BANK2

    None.

Critical Paths under _main in BANK3

    None.

Critical Paths under _Interrupt_Manager in BANK3

    None.

Critical Paths under _main in BANK4

    None.

Critical Paths under _Interrupt_Manager in BANK4

    None.

Critical Paths under _main in BANK5

    None.

Critical Paths under _Interrupt_Manager in BANK5

    None.

Critical Paths under _main in BANK6

    None.

Critical Paths under _Interrupt_Manager in BANK6

    None.

Critical Paths under _main in BANK7

    None.

Critical Paths under _Interrupt_Manager in BANK7

    None.

Critical Paths under _main in BANK8

    None.

Critical Paths under _Interrupt_Manager in BANK8

    None.

Critical Paths under _main in BANK9

    None.

Critical Paths under _Interrupt_Manager in BANK9

    None.

Critical Paths under _main in BANK10

    None.

Critical Paths under _Interrupt_Manager in BANK10

    None.

Critical Paths under _main in BANK11

    None.

Critical Paths under _Interrupt_Manager in BANK11

    None.

Critical Paths under _main in BANK12

    None.

Critical Paths under _Interrupt_Manager in BANK12

    None.

Critical Paths under _main in BANK13

    None.

Critical Paths under _Interrupt_Manager in BANK13

    None.

Critical Paths under _main in BANK14

    None.

Critical Paths under _Interrupt_Manager in BANK14

    None.

Critical Paths under _main in BANK15

    None.

Critical Paths under _Interrupt_Manager in BANK15

    None.

Call Graph Tables:

 ---------------------------------------------------------------------------------
 (Depth) Function   	        Calls       Base Space   Used Autos Params    Refs
 ---------------------------------------------------------------------------------
 (0) _main                                                 3     3      0   16272
                                              0 BANK0      2     2      0
  _USART_ASYNC_ReadByte_Non_Blocking
   _USART_ASYNC_WriteString_Blocking
                     _led_initialize
                         _led_toggle
                     _usart_int_init
 ---------------------------------------------------------------------------------
 (1) _usart_int_init                                       1     1      0    7952
                   _USART_ASYNC_Init
 ---------------------------------------------------------------------------------
 (2) _USART_ASYNC_Init                                     3     1      2    7950
                                             68 COMRAM     3     1      2
               _EUSART_ASYNC_RX_Init
               _EUSART_ASYNC_TX_Init
       _EUSART_BaudRate_Calculations
 ---------------------------------------------------------------------------------
 (3) _EUSART_BaudRate_Calculations                        12    10      2    7301
                                             56 COMRAM    12    10      2
                            ___fladd
                            ___fldiv
                            ___fltol
                           ___xxtofl
 ---------------------------------------------------------------------------------
 (4) ___xxtofl                                            14    10      4     896
                                              1 COMRAM    14    10      4
 ---------------------------------------------------------------------------------
 (4) ___fltol                                             10     6      4     483
                                              1 COMRAM    10     6      4
 ---------------------------------------------------------------------------------
 (4) ___fldiv                                             25    17      8    2627
                                             15 COMRAM    25    17      8
                           ___xxtofl (ARG)
 ---------------------------------------------------------------------------------
 (4) ___fladd                                             16     8      8    2876
                                             40 COMRAM    16     8      8
                            ___fldiv (ARG)
 ---------------------------------------------------------------------------------
 (3) _EUSART_ASYNC_TX_Init                                 2     0      2     208
                                              1 COMRAM     2     0      2
 ---------------------------------------------------------------------------------
 (3) _EUSART_ASYNC_RX_Init                                 2     0      2     252
                                              1 COMRAM     2     0      2
 ---------------------------------------------------------------------------------
 (1) _led_toggle                                           5     3      2     450
                                              8 COMRAM     4     2      2
              _gpio_pin_toggle_logic
 ---------------------------------------------------------------------------------
 (2) _gpio_pin_toggle_logic                                8     6      2     172
                                              1 COMRAM     7     5      2
 ---------------------------------------------------------------------------------
 (1) _led_initialize                                       5     3      2    7280
                                             15 COMRAM     5     3      2
                 _gpio_pin_intialize
 ---------------------------------------------------------------------------------
 (2) _gpio_pin_intialize                                   4     2      2    6976
                                             11 COMRAM     4     2      2
       _gpio_pin_direction_intialize
               _gpio_pin_write_logic
 ---------------------------------------------------------------------------------
 (3) _gpio_pin_write_logic                                10     7      3    4913
                                              1 COMRAM    10     7      3
 ---------------------------------------------------------------------------------
 (3) _gpio_pin_direction_intialize                         9     7      2     559
                                              1 COMRAM     9     7      2
 ---------------------------------------------------------------------------------
 (1) _USART_ASYNC_WriteString_Blocking                     9     5      4     449
                                              2 COMRAM     9     5      4
     _USART_ASYNC_WriteByte_Blocking
 ---------------------------------------------------------------------------------
 (2) _USART_ASYNC_WriteByte_Blocking                       2     2      0      30
                                              1 COMRAM     1     1      0
 ---------------------------------------------------------------------------------
 (1) _USART_ASYNC_ReadByte_Non_Blocking                    3     1      2     123
                                              1 COMRAM     3     1      2
 ---------------------------------------------------------------------------------
 Estimated maximum stack depth 4
 ---------------------------------------------------------------------------------
 (Depth) Function   	        Calls       Base Space   Used Autos Params    Refs
 ---------------------------------------------------------------------------------
 (5) _Interrupt_Manager                                    0     0      0     120
                            _ADC_ISR
                           _CCP1_ISR
                           _CCP2_ISR
                      _EUSART_RX_ISR
                      _EUSART_TX_ISR
                           _INT0_ISR
                           _INT1_ISR
                           _INT2_ISR
                            _RB4_ISR
                            _RB5_ISR
                            _RB6_ISR
                            _RB7_ISR
                         _TIMER0_ISR
                         _TIMER1_ISR
                         _TIMER2_ISR
                         _TIMER3_ISR
 ---------------------------------------------------------------------------------
 (6) _TIMER3_ISR                                           0     0      0       0
 ---------------------------------------------------------------------------------
 (6) _TIMER2_ISR                                           0     0      0       0
 ---------------------------------------------------------------------------------
 (6) _TIMER1_ISR                                           0     0      0       0
 ---------------------------------------------------------------------------------
 (6) _TIMER0_ISR                                           0     0      0       0
 ---------------------------------------------------------------------------------
 (6) _RB7_ISR                                              1     1      0      30
                                              0 COMRAM     1     1      0
 ---------------------------------------------------------------------------------
 (6) _RB6_ISR                                              1     1      0      30
                                              0 COMRAM     1     1      0
 ---------------------------------------------------------------------------------
 (6) _RB5_ISR                                              1     1      0      30
                                              0 COMRAM     1     1      0
 ---------------------------------------------------------------------------------
 (6) _RB4_ISR                                              1     1      0      30
                                              0 COMRAM     1     1      0
 ---------------------------------------------------------------------------------
 (6) _INT2_ISR                                             0     0      0       0
 ---------------------------------------------------------------------------------
 (6) _INT1_ISR                                             0     0      0       0
 ---------------------------------------------------------------------------------
 (6) _INT0_ISR                                             0     0      0       0
 ---------------------------------------------------------------------------------
 (6) _EUSART_TX_ISR                                        0     0      0       0
 ---------------------------------------------------------------------------------
 (6) _EUSART_RX_ISR                                        0     0      0       0
 ---------------------------------------------------------------------------------
 (6) _CCP2_ISR                                             0     0      0       0
 ---------------------------------------------------------------------------------
 (6) _CCP1_ISR                                             0     0      0       0
 ---------------------------------------------------------------------------------
 (6) _ADC_ISR                                              0     0      0       0
 ---------------------------------------------------------------------------------
 Estimated maximum stack depth 6
 ---------------------------------------------------------------------------------

 Call Graph Graphs:

 _main (ROOT)
   _USART_ASYNC_ReadByte_Non_Blocking
   _USART_ASYNC_WriteString_Blocking
     _USART_ASYNC_WriteByte_Blocking
   _led_initialize
     _gpio_pin_intialize
       _gpio_pin_direction_intialize
       _gpio_pin_write_logic
   _led_toggle
     _gpio_pin_toggle_logic
   _usart_int_init
     _USART_ASYNC_Init
       _EUSART_ASYNC_RX_Init
       _EUSART_ASYNC_TX_Init
       _EUSART_BaudRate_Calculations
         ___fladd
           ___fldiv (ARG)
             ___xxtofl (ARG)
         ___fldiv
         ___fltol
         ___xxtofl

 _Interrupt_Manager (ROOT)
   _ADC_ISR
   _CCP1_ISR
   _CCP2_ISR
   _EUSART_RX_ISR
   _EUSART_TX_ISR
   _INT0_ISR
   _INT1_ISR
   _INT2_ISR
   _RB4_ISR
   _RB5_ISR
   _RB6_ISR
   _RB7_ISR
   _TIMER0_ISR
   _TIMER1_ISR
   _TIMER2_ISR
   _TIMER3_ISR

 Address spaces:
Name               Size   Autos  Total    Cost      Usage
BIGRAM             F7F      0       0      48        0.0%
EEDATA             400      0       0       0        0.0%
BITBANK14          100      0       0      32        0.0%
BANK14             100      0       0      33        0.0%
BITBANK13          100      0       0      30        0.0%
BANK13             100      0       0      31        0.0%
BITBANK12          100      0       0      28        0.0%
BANK12             100      0       0      29        0.0%
BITBANK11          100      0       0      26        0.0%
BANK11             100      0       0      27        0.0%
BITBANK10          100      0       0      24        0.0%
BANK10             100      0       0      25        0.0%
BITBANK9           100      0       0      22        0.0%
BANK9              100      0       0      23        0.0%
BITBANK8           100      0       0      20        0.0%
BANK8              100      0       0      21        0.0%
BITBANK7           100      0       0      18        0.0%
BANK7              100      0       0      19        0.0%
BITBANK6           100      0       0      16        0.0%
BANK6              100      0       0      17        0.0%
BITBANK5           100      0       0      14        0.0%
BANK5              100      0       0      15        0.0%
BITBANK4           100      0       0      12        0.0%
BANK4              100      0       0      13        0.0%
BITBANK3           100      0       0      10        0.0%
BANK3              100      0       0      11        0.0%
BITBANK2           100      0       0       8        0.0%
BANK2              100      0       0       9        0.0%
BITBANK1           100      0       0       6        0.0%
BANK1              100      0      30       7       18.8%
BITBANK15           80      0       0      34        0.0%
BANK15              80      0       0      35        0.0%
BITBANK0            80      0       0       4        0.0%
BANK0               80      2      5C       5       71.9%
BITCOMRAM           7E      0       0       0        0.0%
COMRAM              7E     47      7C       1       98.4%
BITBIGSFRhlhhlh     18      0       0      37        0.0%
BITBIGSFRhh          D      0       0      36        0.0%
BITBIGSFRlllhh       6      0       0      44        0.0%
BITBIGSFRhlhhll      5      0       0      38        0.0%
BITBIGSFRhlhl        5      0       0      39        0.0%
BITBIGSFRllhlhl      4      0       0      41        0.0%
BITBIGSFRllllh       4      0       0      45        0.0%
BITBIGSFRllhlhl      4      0       0      42        0.0%
BITBIGSFRlllll       4      0       0      46        0.0%
BITBIGSFRllhlhl      1      0       0      40        0.0%
BITBIGSFRllhll       1      0       0      43        0.0%
BIGSFR               0      0       0     200        0.0%
BITSFR               0      0       0     200        0.0%
SFR                  0      0       0     200        0.0%
STACK                0      0       0       2        0.0%
NULL                 0      0       0       0        0.0%
ABS                  0      0     108      47        0.0%
DATA                 0      0     108       3        0.0%
CODE                 0      0       0       0        0.0%


Microchip Technology PIC18 Macro Assembler V2.41 build 20230208172133 
Symbol Table                                                                                   Fri Dec 08 15:35:50 2023

                                ___fldiv@aexp 0028                                  ___fldiv@bexp 0027  
       USART_ASYNC_ReadByte_Non_Blocking@data 0002                                  ___fldiv@sign 0020  
                           ?_USART_ASYNC_Init 0045                           ??_Interrupt_Manager 0002  
                     _TMR2_Interrupt_Hundeler 00C6                            ??_USART_ASYNC_Init 0047  
                                         l253 29C4                                           l270 29DC  
                                         l249 2968                                           l274 2A36  
                                         l745 2392                                           l764 24CE  
                                         l785 2AA2                                           l778 28C6  
                                         _PR2 0FCB                               __end_of_ADC_ISR 2CF0  
                         led_initialize@F3048 0075                                           prod 0FF3  
                                         wreg 0FE8                               __end_of_RB4_ISR 2CA2  
                             __end_of_RB5_ISR 2C88                               __end_of_RB6_ISR 2C6E  
                             __end_of_RB7_ISR 2C54                                  ___fltol@exp1 000B  
                                        l2100 209A                                          l2102 1EFA  
                                        l2111 1F40                                          l2113 1FB8  
                                        l2105 1EBE                                          l2114 1FA6  
                                        l1501 26B0                                          l2046 1208  
                                        l2063 1322                                          l2055 14D8  
                                        l2047 11F6                                          l2072 13F2  
                                        l2048 11BC                                          l1441 2C22  
                                        l2073 13E0                                          l1417 2B64  
                                        l1434 2C1C                                          l1370 277A  
                                        l1435 2C1E                                          l1443 2C30  
                                        l1419 2B96                                          l1444 2C38  
                                        l2180 218A                                          l2173 20F2  
                                        l1357 2B48                                          l1470 1636  
                                        l1463 2AF8                                          l1471 16DA  
                                        l2176 224E                                          l1472 177E  
                                        l1473 1820                                          l2187 21E6  
                                        l1475 195A                                          l1467 14EE  
                                        l1484 2834                                          l1469 1592  
                                        l1815 25D4                                          l1488 2834  
                                        l5200 115A                                          l6000 2B3C  
                                        l1497 26B0                                          l6010 2C18  
                                        l6002 2BF6                                          l5210 11CA  
                                        l5202 115E                                          l5130 1046  
                                        l5122 101A                                          l6004 2BF6  
                                        l6020 2AE0                                          l5300 1458  
                                        l5220 11F4                                          l5212 11D6  
                                        l5204 1188                                          l5140 1080  
                                        l5132 1056                                          l5124 1026  
                                        l6006 2C04                                          l6022 2AF6  
                                        l6014 2AA4                                          l5310 14AA  
                                        l5302 1468                                          l5230 124A  
                                        l5222 1216                                          l5214 11DA  
                                        l5206 11A4                                          l5150 10AE  
                                        l5142 1086                                          l5134 1066  
                                        l5126 1034                                          l6008 2C10  
                                        l6016 2ABC                                          l5320 14C8  
                                        l5312 14B0                                          l5304 1478  
                                        l5240 1284                                          l5232 1258  
                                        l5224 1226                                          l5216 11E8  
                                        l5208 11B4                                          l5160 10E2  
                                        l5152 10B0                                          l5144 1098  
                                        l5136 1068                                          l5128 1036  
                                        l5400 1EC8                                          l6018 2ADC  
                                        l5314 14B2                                          l5306 1498  
                                        l5250 12F0                                          l5242 1286  
                                        l5234 1266                                          l5218 11EA  
                                        l5170 111E                                          l5154 10C0  
                                        l5162 10EA                                          l5146 109A  
                                        l5138 1070                                          l5410 1F20  
                                        l5402 1EE6                                          l5330 1D1E  
                                        l5316 14B8                                          l5308 149C  
                                        l5260 1348                                          l5252 12F2  
                                        l5244 1290                                          l5236 1272  
                                        l5228 123A                                          l5180 1132  
                                        l5172 1122                                          l5164 10FA  
                                        l5156 10D0                                          l5148 10A0  
                                        l5420 1F5E                                          l5412 1F26  
                                        l5404 1EE8                                          l5332 1D2E  
                                        l5340 1D58                                          l5324 1D02  
                                        l5500 25B4                                          l2854 2C22  
                                        l5318 14C6                                          l5270 1376  
                                        l5254 1302                                          l5238 1276  
                                        l5246 1296                                          l5190 1146  
                                        l5182 1136                                          l5174 1126  
                                        l5166 110C                                          l5158 10E0  
                                        l5430 1FC8                                          l5422 1F62  
                                        l5414 1F30                                          l5406 1EF8  
                                        l5350 1D84                                          l5342 1D68  
                                        l5334 1D3E                                          l5326 1D0E  
                                        l5502 25C4                                          l5510 20BC  
                                        l2856 2C32                                          l5272 1384  
                                        l5264 135C                                          l5280 13A2  
                                        l5248 12BC                                          l5256 1312  
                                        l5192 114A                                          l5184 113A  
                                        l5176 112A                                          l5168 111A  
                                        l5440 202A                                          l5432 1FD4  
                                        l5424 1F70                                          l5416 1F3E  
                                        l5408 1F0A                                          l5352 1D94  
                                        l5360 1DBE                                          l5344 1D6E  
                                        l5336 1D4E                                          l5328 1D1C  
                                        l5520 2134                                          l5512 2102  
                                        l2858 2C36                                          l5274 138C  
                                        l5266 1366                                          l5258 1338  
                                        l5282 13B0                                          l5194 114E  
                                        l5186 113E                                          l5178 112E  
                                        l5450 2088                                          l5442 2040  
                                        l5434 1FE2                                          l5426 1F9E  
                                        l5418 1F50                                          l5370 1E00  
                                        l5362 1DCE                                          l5354 1DA4  
                                        l5346 1D74                                          l5338 1D50  
                                        l5530 21BC                                          l5522 2140  
                                        l5514 2118                                          l5506 209E  
                                        l5700 26AA                                          l5292 1402  
                                        l5284 13B4                                          l5276 1390  
                                        l5268 1374                                          l5196 1152  
                                        l5188 1142                                          l5452 208E  
                                        l5444 205A                                          l5436 200C  
                                        l5364 1DE4                                          l5356 1DB4  
                                        l5348 1D82                                          l5540 21FA  
                                        l5532 21C8                                          l5524 2172  
                                        l5508 20AE                                          l5710 2A74  
                                        l5702 2A38                                          l5294 140E  
                                        l5286 13C2                                          l5278 13A0  
                                        l5198 1156                                          l5454 2090  
                                        l5446 2076                                          l5438 2010  
                                        l5390 1E82                                          l5382 1E38  
                                        l5366 1DF4                                          l5374 1E14  
                                        l5358 1DB6                                          l5470 2524  
                                        l5462 24D0                                          l5542 221E  
                                        l5534 21D6                                          l5526 2174  
                                        l5518 212C                                          l5630 14F4  
                                        l5560 23DC                                          l5552 2394  
                                        l5712 2AA0                                          l5704 2A38  
                                        l5296 141C                                          l5288 13D8  
                                        l5448 207A                                          l5392 1E8A  
                                        l5384 1E52                                          l5376 1E24  
                                        l5368 1DFC                                          l5472 2526  
                                        l5464 24E6                                          l5544 222E  
                                        l5536 21F4                                          l5528 2180  
                                        l5640 168E                                          l5632 1546  
                                        l7160 26B6                                          l5562 23E4  
                                        l5570 24A2                                          l5554 2398  
                                        l5706 2A4A                                          l5298 1456  
                                        l5394 1E9A                                          l5386 1E62  
                                        l5378 1E24                                          l5474 2536  
                                        l5546 223C                                          l5538 21F6  
                                        l7242 1924                                          l5650 1824  
                                        l5642 16E0                                          l5634 1598  
                                        l7170 26F8                                          l7162 26C2  
                                        l5580 2250                                          l7244 24B6  
                                        l5564 2446                                          l5572 24CC  
                                        l5556 23AA                                          l5708 2A6C  
                                        l5740 2836                                          l5396 1EAE  
                                        l5388 1E72                                          l5484 2560  
                                        l5476 253A                                          l5468 24FA  
                                        l5548 223E                                          l5652 1876  
                                        l5644 1732                                          l5636 15EA  
                                        l5628 14DA                                          l7180 2762  
                                        l7172 2712                                          l7164 26CE  
                                        l7156 26B2                                          l7246 237A  
                                        l5590 22F2                                          l5582 2254  
                                        l5558 23BA                                          l5742 2836  
                                        l5670 27D8                                          l5662 2782  
                                        l5398 1EBC                                          l5494 2588  
                                        l5486 256A                                          l5478 2548  
                                        l5654 18C2                                          l5646 1782  
                                        l5638 163C                                          l7174 272A  
                                        l7166 26DA                                          l7158 26B2  
                                        l5584 2266                                          l5920 296C  
                                        l5744 2848                                          l5680 282E  
                                        l5672 27F2                                          l5664 279C  
                                        l5496 2594                                          l5488 2574  
                                        l5648 17D4                                          l5656 1904  
                                        l5760 2B8E                                          l5752 2B4A  
                                        l7176 273C                                          l7168 26EC  
                                        l5594 234E                                          l5586 2288  
                                        l5922 29A2                                          l5914 294A  
                                        l5746 286A                                          l5690 2654  
                                        l5682 25D6                                          l5674 27F4  
                                        l5666 279E                                          l5498 25A4  
                                        l5762 2B90                                          l5754 2B4A  
                                        l7178 2748                                          l5588 2290  
                                        l5596 2390                                          l5924 29A4  
                                        l5916 294E                                          l5748 286E  
                                        l5940 2A16                                          l5932 29C6  
                                        l5692 266E                                          l5684 25F0  
                                        l5676 280E                                          l5668 27CC  
                                        l5764 2B94                                          l5756 2B5C  
                                        l5926 29B6                                          l5918 2960  
                                        l5942 2A18                                          l5934 29C6  
                                        l5694 2670                                          l5686 25F2  
                                        l5678 2814                                          l5758 2B6A  
                                        l5928 29C2                                          l5944 2A2A  
                                        l5936 29D8                                          l5696 268A  
                                        l5688 2648                                          l5938 29E0  
                                        l5698 2690                                          l5980 2B10  
                                        l5990 2B1A                                          l5982 2B12  
                                        l5992 2B1C                                          l5984 2B14  
                                        l5994 2B24                                          l5986 2B16  
                                        l5978 2AFA                                          l5996 2B2C  
                                        l5988 2B18                                          l5998 2B34  
                                        STR_1 1013                                          STR_2 1016  
                                        STR_7 1001                                          STR_8 100A  
                                        u1080 2C30                                          u1081 2C2C  
                                        _LATA 0F89                                          _LATB 0F8A  
                                        _LATC 0F8B                                          u4000 11A0  
                                        _LATD 0F8C                                          u4001 119A  
                                        _LATE 0F8D                                          u4010 11A2  
                                        u4100 12BC                                          u4020 11CA  
                                        u4101 12B8                                          u4021 11C6  
                                        u4110 1302                                          u4030 11E8  
                                        u4111 12FE                                          u4031 11E4  
                                        u4200 13EE                                          u4120 1338  
                                        u4040 1208                                          u4201 13EA  
                                        u4121 1334                                          u4041 1204  
                                        u4210 1402                                          u4130 1348  
                                        u4050 1216                                          u4211 13FE  
                                        u4131 1344                                          u4051 1212  
                                        u5100 2960                                          u4220 141C  
                                        u4140 1374                                          u4060 1226  
                                        u4300 1D2E                                          u5101 295C  
                                        u4221 1418                                          u4141 1370  
                                        u4061 1222                                          u4301 1D2A  
                                        u4230 1456                                          u4150 1384  
                                        u4070 1258                                          u4310 1D3E  
                                        u4231 1452                                          u4151 1380  
                                        u4071 1254                                          u4311 1D3A  
                                        u5120 29D8                                          u4240 1468  
                                        u4160 13A0                                          u4080 1266  
                                        u4400 1F0A                                          u4320 1D82  
                                        u5121 29D4                                          u4241 1464  
                                        u4161 139C                                          u4081 1262  
                                        u4401 1F06                                          u4321 1D7E  
                                        u4250 1478                                          u4170 13B0  
                                        u4090 1284                                          u4410 1F20  
                                        u4330 1D94                                          u5115 29B4  
                                        u4251 1474                                          u4171 13AC  
                                        u4091 1280                                          u4411 1F1C  
                                        u4331 1D90                                          u5140 2C04  
                                        u4260 1498                                          u4180 13C2  
                                        u4500 205A                                          u4420 1F3E  
                                        u4340 1DA4                                          u5141 2C00  
                                        u5117 29B6                                          u4261 1494  
                                        u4181 13BE                                          u4501 2056  
                                        u4421 1F3A                                          u4341 1DA0  
                                        u5150 2AF6                                          u4270 14AA  
                                        u4190 13D8                                          u4510 2088  
                                        u4430 1F5E                                          u4350 1DE4  
                                        u5151 2AF2                                          u5135 2A28  
                                        u4271 14A6                                          u4191 13D4  
                                        u4511 2084                                          u4431 1F5A  
                                        u4351 1DE0                                          u4280 14C6  
                                        u4440 1F70                                          u4360 1E24  
                                        u4520 24E6                                          u4600 20BC  
                                        u5137 2A2A                                          u4281 14C2  
                                        u4441 1F6C                                          u4361 1E20  
                                        u4521 24E2                                          u4601 20B8  
                                        u4450 1F9E                                          u4370 1E9A  
                                        u4290 1D1C                                          u4530 251A  
                                        u4610 2118                                          u4451 1F9A  
                                        u4371 1E96                                          u4291 1D18  
                                        u4611 2114                                          u4700 23BA  
                                        u3900 1034                                          u4460 1FB4  
                                        u4380 1EBC                                          u4540 2548  
                                        u4620 216E                                          u4701 23B6  
                                        u3901 1030                                          u4461 1FB0  
                                        u4381 1EB8                                          u4541 2544  
                                        u4621 216A                                          u4710 23DC  
                                        u3910 1046                                          u4470 1FC8  
                                        u4390 1EE6                                          u4550 255C  
                                        u4630 21B8                                          u4711 23D8  
                                        u3911 1042                                          u4471 1FC4  
                                        u4391 1EE2                                          u4551 2558  
                                        u4535 2510                                          u4631 21B4  
                                        u4800 279C                                          u3920 1056  
                                        u4480 1FE2                                          u4560 2584  
                                        u4640 21D6                                          u4801 2798  
                                        u3921 1052                                          u4481 1FDE  
                                        u4561 2580                                          u4641 21D2  
                                        u4810 27CC                                          u3930 1098  
                                        u4490 202A                                          u4570 25A4  
                                        u4650 21E6                                          u4811 27C8  
                                        u3931 1094                                          u4491 2026  
                                        u4571 25A0                                          u4651 21E2  
                                        u4740 2266                                          u4724 2404  
                                        u4900 2A4A                                          u4820 27F2  
                                        u3940 10AE                                          u4580 25B4  
                                        u4660 21F4                                          u4741 2262  
                                        u4725 2400                                          u4901 2A46  
                                        u4821 27EE                                          u3941 10AA  
                                        u4581 25B0                                          u4661 21F0  
                                        u4750 2288                                          u4734 2466  
                                        u4910 2A6C                                          u4830 280E  
                                        u3950 10C0                                          u4670 222E  
                                        u4590 20AE                                          u4751 2284  
                                        u4735 2462                                          u4911 2A68  
                                        u4831 280A                                          u3951 10BC  
                                        u4671 222A                                          u4591 20AA  
                                        u4840 282E                                          u3960 10D0  
                                        u4680 223C                                          u4841 282A  
                                        u3961 10CC                                          u4681 2238  
                                        u4690 23AA                                          u4930 2848  
                                        u4850 25F0                                          u3970 110C  
                                        u4691 23A6                                          u4931 2844  
                                        u4851 25EC                                          u3971 1108  
                                        u4780 2366                                          u4764 22B0  
                                        u4940 286A                                          u4860 2648  
                                        u3980 111A                                          u4781 2360  
                                        u4765 22AC                                          u4941 2866  
                                        u4861 2644                                          u3981 1116  
                                        u4790 2368                                          u4774 2312  
                                        u4870 266E                                          u3990 1188  
                                        u4775 230E                                          u4871 266A  
                                        u3991 1184                                          u4880 268A  
                                        u4960 2B5C                                          u4881 2686  
                                        u4961 2B58                                          u4954 288E  
                                        u4890 26AA                                          u4955 288A  
                                        u4891 26A6                                          u6807 2704  
                                        u6817 2754                                          u6780 26EC  
                                        u6781 26E8                                          u6790 273C  
                                        u6791 2738                                          _TMR2 0FCC  
               ?_EUSART_BaudRate_Calculations 0039                     __end_of_Interrupt_Manager 1D02  
                                        _led1 007C                                          _led2 007B  
                                        _main 26B2                              __end_of_CCP1_ISR 2CEC  
                            __end_of_CCP2_ISR 2CE8                                          fsr2h 0FDA  
                                        indf2 0FDF                                          fsr1l 0FE1  
                                        fsr2l 0FD9                                          btemp 007D  
                      __end_of_led_initialize 29C6                                          prodl 0FF3  
                                        start 000E                               ___fldiv@new_exp 0021  
                                ___param_bank 0000                        ?_gpio_pin_toggle_logic 0002  
                        _gpio_pin_write_logic 2394                                   ?_TIMER0_ISR 0001  
                                 ?_TIMER1_ISR 0001                                   ?_TIMER2_ISR 0001  
                                 ?_TIMER3_ISR 0001                              __end_of_INT0_ISR 2CE0  
                            __end_of_INT1_ISR 2CDC                              __end_of_INT2_ISR 2CD8  
                               _EUSART_RX_ISR 2CF0                                 ___fltol@sign1 000A  
                               _EUSART_TX_ISR 2CE0                               __end_of___fladd 14DA  
                                       ?_main 0001                               __end_of___fldiv 209C  
                                       _EEADR 0FA9                               __end_of___fltol 25D6  
                                       i2l620 2CE6                                         i2l616 2CEA  
                                       i2l458 2CEE                                         i2l971 2CDE  
                                       i2l981 2CD6                                         i2l976 2CDA  
                                       i2l992 2CA0                                         _RCREG 0FAE  
                                       _TMR0H 0FD7                                         _TMR1H 0FCF  
                                       _TMR0L 0FD6                                         _TMR1L 0FCE  
                                       _TMR3H 0FB3                                         _TMR3L 0FB2  
                                       _SPBRG 0FAF                                         _PORTA 0F80  
                                       _PORTB 0F81                                         _PORTC 0F82  
                                       _PORTD 0F83                                         _PORTE 0F84  
                                       _TRISA 0F92                                         _TRISB 0F93  
                                       _TRISC 0F94                                         _TRISD 0F95  
                                       _TRISE 0F96                                         _TXREG 0FAD  
                                       _lcd_1 00A8                                         _lcd_2 009E  
                                       tablat 0FF5                                         ttemp5 007E  
                                       ttemp6 0081                                         ttemp7 0085  
                                       status 0FD8                                         wtemp8 007E  
                             ?_led_initialize 0010                               __initialization 28C8  
                                __end_of_main 2782                         ?_gpio_pin_write_logic 0002  
                                   ??_ADC_ISR 0001                                ?_EUSART_RX_ISR 0001  
                              ?_EUSART_TX_ISR 0001                                 _lat_registers 008A  
                                      ??_main 00DA                                 __activetblptr 0003  
USART_ASYNC_WriteString_Blocking@L_str_length 000A                              led_turn_on@F3053 0074  
                                   ??_RB4_ISR 0001                                     ??_RB5_ISR 0001  
                                   ??_RB6_ISR 0001                                     ??_RB7_ISR 0001  
                                      _ADRESH 0FC4                                        _EEADRH 0FAA  
                                      _ADRESL 0FC3                                        _EEDATA 0FA8  
                                      _CCPR1H 0FBF                                        _CCPR2H 0FBC  
                                      _CCPR1L 0FBE                                        _CCPR2L 0FBB  
                                      _EECON2 0FA7                           Relay_Turn_OFF@F3052 006F  
                                      i2l1003 2C86                                        i2l1101 1B56  
                                      i2l1014 2C6C                                        i2l1111 1C3E  
                                      i2l1103 1B9A                                        i2l1025 2C52  
                                      i2l1121 1CDE                                        i2l1113 1C5E  
                                      i2l1105 1BDE                                        i2l1115 1C7E  
                                      i2l1107 1BFE                                        i2l1124 1CFE  
                                      i2l1117 1C9E                                        i2l1109 1C1E  
                                      i2l1119 1CBE                                        i2l1091 1A02  
                                      i2l1340 2CAC                                        i2l1245 2CB8  
                                      i2l1093 1A46                                        i2l1085 197E  
                                      i2l3102 2CEC                                        i2l3110 2CE4  
                                      i2l1166 2CC4                                        i2l1095 1A8A  
                                      i2l1087 199E                                        i2l1097 1ACE  
                                      i2l1089 19BE                                        i2l3106 2CE8  
                                      i2l1506 2CE2                                        i2l3202 2C86  
                                      i2l3210 2C58                                        i2l1515 2CF0  
                                      i2l1099 1B12                                        i2l1285 2CCC  
                                      i2l3230 2C52                                        i2l3222 2C3C  
                                      i2l3216 2C6C                                        i2l3208 2C56  
                                      i2l3224 2C3E                                        i2l3240 2CC0  
                                      i2l3162 2CDC                                        i2l3180 2C8A  
                                      i2l3236 2CBA                                        i2l3174 2CD4  
                                      i2l3182 2C8C                                        i2l3238 2CBC  
                                      i2l3168 2CD8                                        i2l3194 2C70  
                                      i2l3188 2CA0                                        i2l3196 2C72  
                                      i2l6900 1B64                                        i2l6910 1BA8  
                                      i2l6902 1B72                                        i2l6830 197A  
                                      i2l5960 2CE0                                        i2l5952 2CC6  
                                      i2l6920 1BEC                                        i2l6912 1BB6  
                                      i2l6904 1B80                                        i2l6840 19CC  
                                      i2l6832 198C                                        i2l6930 1C3A  
                                      i2l6922 1BFA                                        i2l6914 1BC4  
                                      i2l6906 1B90                                        i2l6850 1A10  
                                      i2l6842 19DA                                        i2l6834 199A  
                                      i2l6826 195E                                        i2l5948 2CAE  
                                      i2l5956 2CA2                                        i2l6940 1C8C  
                                      i2l6932 1C4C                                        i2l6924 1C0C  
                                      i2l6916 1BD4                                        i2l6908 1B94  
                                      i2l6860 1A54                                        i2l6852 1A1E  
                                      i2l6844 19E8                                        i2l6836 19AC  
                                      i2l6828 196C                                        i2l5966 2CF0  
                                      i2l6950 1CDA                                        i2l6942 1C9A  
                                      i2l6934 1C5A                                        i2l6926 1C1A  
                                      i2l6918 1BD8                                        i2l6870 1A98  
                                      i2l6862 1A62                                        i2l6854 1A2C  
                                      i2l6846 19F8                                        i2l6838 19BA  
                                      i2l6952 1CEC                                        i2l6944 1CAC  
                                      i2l6936 1C6C                                        i2l6928 1C2C  
                                      i2l6880 1ADC                                        i2l6872 1AA6  
                                      i2l6864 1A70                                        i2l6856 1A3C  
                                      i2l6848 19FC                                        i2l6954 1CFA  
                                      i2l6946 1CBA                                        i2l6938 1C7A  
                                      i2l6890 1B20                                        i2l6882 1AEA  
                                      i2l6874 1AB4                                        i2l6866 1A80  
                                      i2l6858 1A40                                        i2l6948 1CCC  
                                      i2l6892 1B2E                                        i2l6884 1AF8  
                                      i2l6876 1AC4                                        i2l6868 1A84  
                                      i2l6894 1B3C                                        i2l6886 1B08  
                                      i2l6878 1AC8                                        i2l6896 1B4C  
                                      i2l6888 1B0C                                        i2l6898 1B50  
                                      _SPBRGH 0FB0                              __end_of___xxtofl 2250  
              ??_EUSART_BaudRate_Calculations 003B                     EUSART_ASYNC_RX_Init@eusar 0002  
                 _RB6_Interrupt_Handular_HIGH 0054                                     ??___fladd 0031  
                                   ??___fldiv 0018                                     ??___fltol 0006  
        USART_ASYNC_ReadByte_Non_Blocking@ret 0004                                        clear_0 292E  
                                      clear_1 293A                         led_initialize@pin_obj 0014  
                                      isa$std 0001                                     ?_CCP1_ISR 0001  
                                __pdataCOMRAM 0077                                     ?_CCP2_ISR 0001  
                                __mediumconst 0000                                        tblptrh 0FF7  
                                      tblptrl 0FF6                                        tblptru 0FF8  
   EUSART_BaudRate_Calculations@BaudRate_Temp 003D                              _timer2_preloaded 006E  
                __end_of_EUSART_ASYNC_RX_Init 26B2                  __end_of_EUSART_ASYNC_TX_Init 2836  
                                ___xxtofl@arg 000C                                  ___xxtofl@exp 000B  
                                ___xxtofl@val 0002                                    __accesstop 0080  
                     __end_of__initialization 2940                                     ?_INT0_ISR 0001  
                                   ?_INT1_ISR 0001                                     ?_INT2_ISR 0001  
                               ___rparam_used 0001                                    ___fltol@f1 0002  
                           led_initialize@led 0010                             led_initialize@ret 0013  
                      ??_gpio_pin_write_logic 0005                                __pcstackCOMRAM 0001  
                                __pidataBANK0 2BC8                                  __pidataBANK1 2B98  
                               RB4_ISR@source 0001                               ??_EUSART_RX_ISR 0001  
                             ??_EUSART_TX_ISR 0001       USART_ASYNC_WriteString_Blocking@str_len 0005  
                                  ??_CCP1_ISR 0001                                    ??_CCP2_ISR 0001  
                     _CCP1_Interrupt_Hundeler 006A                                 RB5_ISR@source 0001  
           CCP_Captured_Mode_Read_Value@F3127 0066                    _RB6_Interrupt_Handular_LOW 0052  
                     _INT0_Interrupt_Handular 0062                                    __pbssBANK0 00AE  
                                  ??_INT0_ISR 0001                                    ??_INT1_ISR 0001  
                 convert_uint_16_string@F3199 00AE                                    ??_INT2_ISR 0001  
                     ??_gpio_pin_toggle_logic 0004                         Relay_Initialize@F3042 0071  
                   EUSART_ASYNC_TX_Init@eusar 0002                                 RB6_ISR@source 0001  
                           led_turn_off@F3058 0073                                  ??_TIMER0_ISR 0001  
                                ??_TIMER1_ISR 0001                                  ??_TIMER2_ISR 0001  
                               led_toggle@led 0009                                  ??_TIMER3_ISR 0001  
                                     _ADC_ISR 2CEC                               led_toggle@F3063 0072  
                     _TMR1_Interrupt_Hundeler 0048                                       _RB4_ISR 2C88  
                                     _RB5_ISR 2C6E                                       _RB6_ISR 2C54  
                                     _RB7_ISR 2C3A                                     ?___xxtofl 0002  
                               RB7_ISR@source 0001                              ??_led_initialize 0012  
                         USART_ASYNC_Init@ret 0047                                    _led_toggle 29C6  
                              _tris_registers 0094                            __end_of_TIMER0_ISR 2CC6  
                          __end_of_TIMER1_ISR 2CBA                            __end_of_TIMER2_ISR 2CCE  
                          __end_of_TIMER3_ISR 2CAE                                       __Hparam 0000  
                                     __Lparam 0000                                       ___fladd 101A  
                                     ___fldiv 1D02                                       ___fltol 24D0  
                                __psmallconst 1000                                _usart_int_init 2AFA  
                        _EUSART_ASYNC_RX_Init 25D6                          _EUSART_ASYNC_TX_Init 2782  
                  __end_of_gpio_pin_intialize 2AA4                                       __pcinit 28C8  
                                     __ramtop 1000                                       __ptext0 26B2  
                                     __ptext1 2AFA                                       __ptext2 2B4A  
                                     __ptext3 14DA                                       __ptext4 209C  
                                     __ptext5 24D0                                       __ptext6 1D02  
                                     __ptext7 101A                                       __ptext8 2782  
                                     __ptext9 25D6                                     _T0CONbits 0FD5  
                                   _T1CONbits 0FCD                                     _T2CONbits 0FCA  
                                  ??___xxtofl 0006                                     _T3CONbits 0FB1  
                              __pintcode_body 195C                          end_of_initialization 2940  
                                     int_func 195C           USART_ASYNC_WriteString_Blocking@ret 0009  
                       gpio_pin_intialize@ret 000F                                     _RCSTAbits 0FAB  
                      __end_of_usart_int_init 2B4A                                       postdec1 0FE5  
                                     postdec2 0FDD                                       postinc0 0FEE  
                                     postinc2 0FDE                         ?_EUSART_ASYNC_RX_Init 0002  
                       ?_EUSART_ASYNC_TX_Init 0002                                     _PORTBbits 0F81  
                           led_toggle@pin_obj 000C                                   ___fladd@grs 0038  
        __end_of_gpio_pin_direction_intialize 2394                  _gpio_pin_direction_intialize 2250  
                               ___xxtofl@sign 000A                         USART_ASYNC_Init@eusar 0045  
                                   _TRISCbits 0F94                                   ___fldiv@grs 0023  
                                 ___fldiv@rem 001C                              _USART_ASYNC_Init 2B4A  
           EUSART_BaudRate_Calculations@eusar 0039                                   ?_led_toggle 0009  
                                 _CCP1CONbits 0FBD                                   _CCP2CONbits 0FBA  
                                   _TXSTAbits 0FAC                   _RB4_Interrupt_Handular_HIGH 005C  
                             ?_usart_int_init 0001                   _RB7_Interrupt_Handular_HIGH 0050  
                                 _BAUDCONbits 0FB8                                 __pidataCOMRAM 2CCE  
                              _timer0_preload 004A                                _timer1_preload 00B8  
            ??_USART_ASYNC_WriteByte_Blocking 0002               ?_USART_ASYNC_WriteByte_Blocking 0001  
                         start_initialization 28C8                                _timer3_preload 00B4  
               ?_gpio_pin_direction_intialize 0002                            Relay_Turn_ON@F3047 0070  
               __end_of_gpio_pin_toggle_logic 28C8                        ??_EUSART_ASYNC_RX_Init 0004  
                      ??_EUSART_ASYNC_TX_Init 0004       _EUSART_Overrun_error_Interrupt_Hundeler 00BC  
                                 __pdataBANK0 0080                                   __pdataBANK1 0100  
                                    ?_ADC_ISR 0001                         __end_of_EUSART_RX_ISR 2CF2  
                       __end_of_EUSART_TX_ISR 2CE4                        _ADC_Interrupt_Handular 006C  
                                   ___fladd@a 002D                                     ___fladd@b 0029  
                                   ___fldiv@a 0014                                     ___fldiv@b 0010  
                                    ?_RB4_ISR 0001                                      ?_RB5_ISR 0001  
                                    ?_RB6_ISR 0001                                      ?_RB7_ISR 0001  
                                 __pbssCOMRAM 0048                                 __pcstackBANK0 00DA  
                  _RB5_Interrupt_Handular_LOW 0056                       _INT2_Interrupt_Handular 005E  
              gpio_pin_write_logic@pin_config 0002               gpio_pin_direction_intialize@ret 000A  
                _EUSART_TX_Interrupt_Hundeler 00C2                                     __pintcode 0008  
                                    ?___fladd 0029                                      ?___fldiv 0010  
                                    ?___fltol 0002                     gpio_pin_write_logic@logic 0004  
                     _TMR0_Interrupt_Hundeler 004C                       _TMR3_Interrupt_Hundeler 00C4  
                                 __smallconst 1000                                      _CCP1_ISR 2CE8  
                                    _CCP2_ISR 2CE4                            _gpio_pin_intialize 2A38  
                                   _rec_usart 0076                ??_gpio_pin_direction_intialize 0004  
                                    _INT0_ISR 2CDC                                      _INT1_ISR 2CD8  
                                    _INT2_ISR 2CD4                                      _RB4_Flag 007A  
                                    _RB5_Flag 0079                                      _RB6_Flag 0078  
                                    _RB7_Flag 0077                           ?_gpio_pin_intialize 000C  
                                    _PIE1bits 0F9D                                      _PIE2bits 0FA0  
                                    i2u143_40 2C9C                                      i2u143_41 2C98  
                                    i2u144_40 2C82                                      i2u144_41 2C7E  
                                    i2u145_40 2C68                                      i2u145_41 2C64  
                                    i2u146_40 2C4E                                      i2u146_41 2C4A  
                                    _PIR1bits 0F9E                                      i2u610_40 197A  
                                    i2u610_41 1976                                      i2u611_40 198C  
                                    i2u611_41 1988                                      _PIR2bits 0FA1  
                                    i2u620_40 1A1E                                      i2u612_40 199A  
                                    i2u620_41 1A1A                                      i2u612_41 1996  
                                    i2u621_40 1A2C                                      i2u613_40 19AC  
                                    i2u621_41 1A28                                      i2u613_41 19A8  
                                    i2u630_40 1AC4                                      i2u622_40 1A3C  
                                    i2u614_40 19BA                                      i2u630_41 1AC0  
                                    i2u622_41 1A38                                      i2u614_41 19B6  
                                    i2u631_40 1ADC                                      i2u623_40 1A54  
                                    i2u615_40 19CC                                      i2u631_41 1AD8  
                                    i2u623_41 1A50                                      i2u615_41 19C8  
                                    i2u640_40 1B72                                      i2u632_40 1AEA  
                                    i2u624_40 1A62                                      i2u616_40 19DA  
                                    i2u640_41 1B6E                                      i2u632_41 1AE6  
                                    i2u624_41 1A5E                                      i2u616_41 19D6  
                                    i2u641_40 1B80                                      i2u633_40 1AF8  
                                    i2u625_40 1A70                                      i2u617_40 19E8  
                                    i2u609_40 196C                                      i2u641_41 1B7C  
                                    i2u633_41 1AF4                                      i2u625_41 1A6C  
                                    i2u617_41 19E4                                      i2u609_41 1968  
                                    i2u650_40 1C1A                                      i2u642_40 1B90  
                                    i2u634_40 1B08                                      i2u626_40 1A80  
                                    i2u618_40 19F8                                      i2u650_41 1C16  
                                    i2u642_41 1B8C                                      i2u634_41 1B04  
                                    i2u626_41 1A7C                                      i2u618_41 19F4  
                                    i2u651_40 1C2C                                      i2u643_40 1BA8  
                                    i2u635_40 1B20                                      i2u627_40 1A98  
                                    i2u619_40 1A10                                      i2u651_41 1C28  
                                    i2u643_41 1BA4                                      i2u635_41 1B1C  
                                    i2u627_41 1A94                                      i2u619_41 1A0C  
                                    i2u660_40 1CBA                                      i2u652_40 1C3A  
                                    i2u644_40 1BB6                                      i2u636_40 1B2E  
                                    i2u628_40 1AA6                                      i2u660_41 1CB6  
                                    i2u652_41 1C36                                      i2u644_41 1BB2  
                                    i2u636_41 1B2A                                      i2u628_41 1AA2  
                                    i2u661_40 1CCC                                      i2u653_40 1C4C  
                                    i2u645_40 1BC4                                      i2u637_40 1B3C  
                                    i2u629_40 1AB4                                      i2u661_41 1CC8  
                                    i2u653_41 1C48                                      i2u645_41 1BC0  
                                    i2u637_41 1B38                                      i2u629_41 1AB0  
                                    i2u662_40 1CDA                                      i2u654_40 1C5A  
                                    i2u646_40 1BD4                                      i2u638_40 1B4C  
                                    i2u662_41 1CD6                                      i2u654_41 1C56  
                                    i2u646_41 1BD0                                      i2u638_41 1B48  
                                    i2u663_40 1CEC                                      i2u655_40 1C6C  
                                    i2u647_40 1BEC                                      i2u639_40 1B64  
                                    i2u663_41 1CE8                                      i2u655_41 1C68  
                                    i2u647_41 1BE8                                      i2u639_41 1B60  
                                    i2u664_40 1CFA                                      i2u656_40 1C7A  
                                    i2u648_40 1BFA                                      i2u664_41 1CF6  
                                    i2u656_41 1C76                                      i2u648_41 1BF6  
                                    i2u657_40 1C8C                                      i2u649_40 1C0C  
                                    i2u657_41 1C88                                      i2u649_41 1C08  
                                    i2u658_40 1C9A                                      i2u658_41 1C96  
                                    i2u659_40 1CAC                                      i2u659_41 1CA8  
                    __end_of_USART_ASYNC_Init 2B98                             _keypad_btn_values 0100  
            CCP1_Compare_Mode_Set_Value@F3148 0064                                    _ADCON0bits 0FC2  
                                  _ADCON1bits 0FC1                                    _ADCON2bits 0FC0  
                        ??_gpio_pin_intialize 000E                                     _usart_obj 00C8  
                     gpio_pin_write_logic@ret 000B      __end_of_USART_ASYNC_WriteString_Blocking 2AFA  
          ??_USART_ASYNC_WriteString_Blocking 0007             ?_USART_ASYNC_WriteString_Blocking 0003  
            _USART_ASYNC_WriteString_Blocking 2AA4                                   _INTCON2bits 0FF1  
                                 _INTCON3bits 0FF0                                     copy_data0 28DC  
                                   copy_data1 28FC                                     copy_data2 291C  
                                ??_led_toggle 000B                              ??_usart_int_init 0048  
                                  _EECON1bits 0FA6                                      __Hrparam 0000  
                                    __Lrparam 0000                            __end_of_led_toggle 2A38  
                                    ___xxtofl 209C                                      __ptext10 29C6  
                                    __ptext11 2836                                      __ptext20 2CA2  
                                    __ptext12 294A                                      __ptext21 2CC6  
                                    __ptext13 2A38                                      __ptext30 2CDC  
                                    __ptext22 2CAE                                      __ptext14 2394  
                                    __ptext31 2CE0                                      __ptext23 2CBA  
                                    __ptext15 2250                                      __ptext32 2CF0  
                                    __ptext24 2C3A                                      __ptext16 2AA4  
                                    __ptext33 2CE4                                      __ptext25 2C54  
                                    __ptext17 2C20                                      __ptext34 2CE8  
                                    __ptext26 2C6E                                      __ptext18 2BF6  
                                    __ptext35 2CEC                                      __ptext27 2C88  
                                    __ptext28 2CD4                                      __ptext29 2CD8  
      __end_of_USART_ASYNC_WriteByte_Blocking 2C3A                _USART_ASYNC_WriteByte_Blocking 2C20  
                gpio_pin_intialize@pin_config 000C                   _RB5_Interrupt_Handular_HIGH 0058  
                                    isa$xinst 0000                                      int$flags 007D  
          USART_ASYNC_WriteByte_Blocking@data 0002                                    _INTCONbits 0FF2  
                __end_of_gpio_pin_write_logic 24D0     __end_of_USART_ASYNC_ReadByte_Non_Blocking 2C20  
         ??_USART_ASYNC_ReadByte_Non_Blocking 0004            ?_USART_ASYNC_ReadByte_Non_Blocking 0002  
           _USART_ASYNC_ReadByte_Non_Blocking 2BF6                                      intlevel2 0000  
        USART_ASYNC_WriteString_Blocking@data 0003               gpio_pin_toggle_logic@pin_config 0002  
      gpio_pin_direction_intialize@pin_config 0002             _EUSART_BaudRate_Calculations$4767 0041  
                       _gpio_pin_toggle_logic 2836                                    _TIMER0_ISR 2CBA  
                                  _TIMER1_ISR 2CAE                                    _TIMER2_ISR 2CC6  
                                  _TIMER3_ISR 2CA2        _EUSART_Framig_error_Interrupt_Hundeler 00BE  
                              _port_registers 0080                    _RB4_Interrupt_Handular_LOW 005A  
                     _CCP2_Interrupt_Hundeler 0068          __end_of_EUSART_BaudRate_Calculations 195C  
                _EUSART_BaudRate_Calculations 14DA                                 ___fladd@signs 0035  
                     _INT1_Interrupt_Handular 0060                    _RB7_Interrupt_Handular_LOW 004E  
                                ___fladd@aexp 0036                                  ___fladd@bexp 0037  
                           _Interrupt_Manager 0008                                _led_initialize 294A  
                _EUSART_RX_Interrupt_Hundeler 00C0                            ?_Interrupt_Manager 0001  
